; Listing generated by Microsoft (R) Optimizing Compiler Version 19.00.24234.1 

include listing.inc


PUBLIC	??_C@_0EC@HCHNIDLM@A?5valid?5JSON?5document?5must?5be?5ei@ ; `string'
PUBLIC	??_C@_0CP@GDDNKEK@Syntax?5error?3?5value?0?5object?5or?5a@ ; `string'
PUBLIC	??_C@_03FFDNHNKN@rue?$AA@			; `string'
PUBLIC	??_C@_04KCECFHEP@alse?$AA@			; `string'
PUBLIC	??_C@_03KNPGGKC@ull?$AA@			; `string'
PUBLIC	??_C@_0CF@GCCDMCPH@Missing?5?8?3?8?5after?5object?5member?5@ ; `string'
PUBLIC	??_C@_0CJ@NGKOAFKA@Missing?5?8?0?8?5or?5?8?$HN?8?5in?5object?5dec@ ; `string'
PUBLIC	??_C@_0CC@JNCGHFHN@Missing?5?8?$HN?8?5or?5object?5member?5nam@ ; `string'
PUBLIC	??_C@_0CI@DPCANLPO@Missing?5?8?0?8?5or?5?8?$FN?8?5in?5array?5decl@ ; `string'
PUBLIC	??_C@_0BD@HHNBFDKF@?8?5is?5not?5a?5number?4?$AA@ ; `string'
PUBLIC	??_C@_01GEODFPGF@?8?$AA@			; `string'
PUBLIC	??_C@_03DLDNIBIK@?$CFlf?$AA@			; `string'
PUBLIC	??_C@_0CA@DPGKPPOE@Empty?5escape?5sequence?5in?5string?$AA@ ; `string'
PUBLIC	??_C@_0BO@NDEEJNNB@Bad?5escape?5sequence?5in?5string?$AA@ ; `string'
PUBLIC	??_C@_0EE@LMPEHADE@additional?5six?5characters?5expect@ ; `string'
PUBLIC	??_C@_0FA@BGMMPLKB@expecting?5another?5?2u?5token?5to?5be@ ; `string'
PUBLIC	??_C@_0DN@BPAHJPFJ@Bad?5unicode?5escape?5sequence?5in?5s@ ; `string'
PUBLIC	??_C@_0ED@FIDDECIG@Bad?5unicode?5escape?5sequence?5in?5s@ ; `string'
PUBLIC	??_C@_0BD@LAMGIMLG@Line?5?$CFd?0?5Column?5?$CFd?$AA@ ; `string'
PUBLIC	??_C@_02KAOAMBHJ@?$CK?5?$AA@			; `string'
PUBLIC	??_C@_02KNHHEEKP@?5?5?$AA@			; `string'
PUBLIC	??_C@_0O@JBAGGIKP@?5for?5detail?4?6?$AA@	; `string'
PUBLIC	??_C@_04JBAOJHKB@See?5?$AA@			; `string'
EXTRN	__stdio_common_vsscanf:PROC
;	COMDAT ??_C@_04JBAOJHKB@See?5?$AA@
CONST	SEGMENT
??_C@_04JBAOJHKB@See?5?$AA@ DB 'See ', 00H		; `string'
CONST	ENDS
;	COMDAT ??_C@_0O@JBAGGIKP@?5for?5detail?4?6?$AA@
CONST	SEGMENT
??_C@_0O@JBAGGIKP@?5for?5detail?4?6?$AA@ DB ' for detail.', 0aH, 00H ; `string'
CONST	ENDS
;	COMDAT ??_C@_02KNHHEEKP@?5?5?$AA@
CONST	SEGMENT
??_C@_02KNHHEEKP@?5?5?$AA@ DB '  ', 00H			; `string'
CONST	ENDS
;	COMDAT ??_C@_02KAOAMBHJ@?$CK?5?$AA@
CONST	SEGMENT
??_C@_02KAOAMBHJ@?$CK?5?$AA@ DB '* ', 00H		; `string'
CONST	ENDS
;	COMDAT ??_C@_0BD@LAMGIMLG@Line?5?$CFd?0?5Column?5?$CFd?$AA@
CONST	SEGMENT
??_C@_0BD@LAMGIMLG@Line?5?$CFd?0?5Column?5?$CFd?$AA@ DB 'Line %d, Column '
	DB	'%d', 00H					; `string'
CONST	ENDS
;	COMDAT ??_C@_0ED@FIDDECIG@Bad?5unicode?5escape?5sequence?5in?5s@
CONST	SEGMENT
??_C@_0ED@FIDDECIG@Bad?5unicode?5escape?5sequence?5in?5s@ DB 'Bad unicode'
	DB	' escape sequence in string: hexadecimal digit expected.', 00H ; `string'
CONST	ENDS
;	COMDAT ??_C@_0DN@BPAHJPFJ@Bad?5unicode?5escape?5sequence?5in?5s@
CONST	SEGMENT
??_C@_0DN@BPAHJPFJ@Bad?5unicode?5escape?5sequence?5in?5s@ DB 'Bad unicode'
	DB	' escape sequence in string: four digits expected.', 00H ; `string'
CONST	ENDS
;	COMDAT ??_C@_0FA@BGMMPLKB@expecting?5another?5?2u?5token?5to?5be@
CONST	SEGMENT
??_C@_0FA@BGMMPLKB@expecting?5another?5?2u?5token?5to?5be@ DB 'expecting '
	DB	'another \u token to begin the second half of a unicode surrog'
	DB	'ate pair', 00H				; `string'
CONST	ENDS
;	COMDAT ??_C@_0EE@LMPEHADE@additional?5six?5characters?5expect@
CONST	SEGMENT
??_C@_0EE@LMPEHADE@additional?5six?5characters?5expect@ DB 'additional si'
	DB	'x characters expected to parse unicode surrogate pair.', 00H ; `string'
CONST	ENDS
;	COMDAT ??_C@_0BO@NDEEJNNB@Bad?5escape?5sequence?5in?5string?$AA@
CONST	SEGMENT
??_C@_0BO@NDEEJNNB@Bad?5escape?5sequence?5in?5string?$AA@ DB 'Bad escape '
	DB	'sequence in string', 00H			; `string'
CONST	ENDS
;	COMDAT ??_C@_0CA@DPGKPPOE@Empty?5escape?5sequence?5in?5string?$AA@
CONST	SEGMENT
??_C@_0CA@DPGKPPOE@Empty?5escape?5sequence?5in?5string?$AA@ DB 'Empty esc'
	DB	'ape sequence in string', 00H		; `string'
CONST	ENDS
;	COMDAT ??_C@_03DLDNIBIK@?$CFlf?$AA@
CONST	SEGMENT
??_C@_03DLDNIBIK@?$CFlf?$AA@ DB '%lf', 00H		; `string'
CONST	ENDS
;	COMDAT ??_C@_01GEODFPGF@?8?$AA@
CONST	SEGMENT
??_C@_01GEODFPGF@?8?$AA@ DB '''', 00H			; `string'
CONST	ENDS
;	COMDAT ??_C@_0BD@HHNBFDKF@?8?5is?5not?5a?5number?4?$AA@
CONST	SEGMENT
??_C@_0BD@HHNBFDKF@?8?5is?5not?5a?5number?4?$AA@ DB ''' is not a number.', 00H ; `string'
CONST	ENDS
;	COMDAT ??_C@_0CI@DPCANLPO@Missing?5?8?0?8?5or?5?8?$FN?8?5in?5array?5decl@
CONST	SEGMENT
??_C@_0CI@DPCANLPO@Missing?5?8?0?8?5or?5?8?$FN?8?5in?5array?5decl@ DB 'Mi'
	DB	'ssing '','' or '']'' in array declaration', 00H ; `string'
CONST	ENDS
;	COMDAT ??_C@_0CC@JNCGHFHN@Missing?5?8?$HN?8?5or?5object?5member?5nam@
CONST	SEGMENT
??_C@_0CC@JNCGHFHN@Missing?5?8?$HN?8?5or?5object?5member?5nam@ DB 'Missin'
	DB	'g ''}'' or object member name', 00H		; `string'
CONST	ENDS
;	COMDAT ??_C@_0CJ@NGKOAFKA@Missing?5?8?0?8?5or?5?8?$HN?8?5in?5object?5dec@
CONST	SEGMENT
??_C@_0CJ@NGKOAFKA@Missing?5?8?0?8?5or?5?8?$HN?8?5in?5object?5dec@ DB 'Mi'
	DB	'ssing '','' or ''}'' in object declaration', 00H ; `string'
CONST	ENDS
;	COMDAT ??_C@_0CF@GCCDMCPH@Missing?5?8?3?8?5after?5object?5member?5@
CONST	SEGMENT
??_C@_0CF@GCCDMCPH@Missing?5?8?3?8?5after?5object?5member?5@ DB 'Missing '
	DB	''':'' after object member name', 00H	; `string'
CONST	ENDS
;	COMDAT ??_C@_03KNPGGKC@ull?$AA@
CONST	SEGMENT
??_C@_03KNPGGKC@ull?$AA@ DB 'ull', 00H			; `string'
CONST	ENDS
;	COMDAT ??_C@_04KCECFHEP@alse?$AA@
CONST	SEGMENT
??_C@_04KCECFHEP@alse?$AA@ DB 'alse', 00H		; `string'
CONST	ENDS
;	COMDAT ??_C@_03FFDNHNKN@rue?$AA@
CONST	SEGMENT
??_C@_03FFDNHNKN@rue?$AA@ DB 'rue', 00H			; `string'
CONST	ENDS
;	COMDAT ??_C@_0CP@GDDNKEK@Syntax?5error?3?5value?0?5object?5or?5a@
CONST	SEGMENT
??_C@_0CP@GDDNKEK@Syntax?5error?3?5value?0?5object?5or?5a@ DB 'Syntax err'
	DB	'or: value, object or array expected.', 00H	; `string'
CONST	ENDS
;	COMDAT ??_C@_0EC@HCHNIDLM@A?5valid?5JSON?5document?5must?5be?5ei@
CONST	SEGMENT
??_C@_0EC@HCHNIDLM@A?5valid?5JSON?5document?5must?5be?5ei@ DB 'A valid JS'
	DB	'ON document must be either an array or an object value.', 00H ; `string'
PUBLIC	??$_Copy_memmove@PEAPEAPEAVValue@Json@@PEAPEAPEAV12@@std@@YAPEAPEAPEAVValue@Json@@PEAPEAPEAV12@00@Z ; std::_Copy_memmove<Json::Value * __ptr64 * __ptr64 * __ptr64,Json::Value * __ptr64 * __ptr64 * __ptr64>
PUBLIC	??$_Copy_memmove@PEAPEAVErrorInfo@Reader@Json@@PEAPEAV123@@std@@YAPEAPEAVErrorInfo@Reader@Json@@PEAPEAV123@00@Z ; std::_Copy_memmove<Json::Reader::ErrorInfo * __ptr64 * __ptr64,Json::Reader::ErrorInfo * __ptr64 * __ptr64>
PUBLIC	??$construct@VErrorInfo@Reader@Json@@$$V@?$allocator@VErrorInfo@Reader@Json@@@std@@QEAAXPEAVErrorInfo@Reader@Json@@@Z ; std::allocator<Json::Reader::ErrorInfo>::construct<Json::Reader::ErrorInfo>
PUBLIC	??0ErrorInfo@Reader@Json@@QEAA@AEBV012@@Z	; Json::Reader::ErrorInfo::ErrorInfo
PUBLIC	??$_Uninitialized_copy_al_unchecked1@PEAPEAVValue@Json@@PEAPEAV12@V?$allocator@PEAPEAVValue@Json@@@std@@@std@@YAPEAPEAPEAVValue@Json@@PEAPEAPEAV12@00AEAU?$_Wrap_alloc@V?$allocator@PEAPEAVValue@Json@@@std@@@0@U_Really_trivial_ptr_iterator_tag@0@U?$integral_constant@_N$00@0@@Z ; std::_Uninitialized_copy_al_unchecked1<Json::Value * __ptr64 * __ptr64,Json::Value * __ptr64 * __ptr64,std::allocator<Json::Value * __ptr64 * __ptr64> >
PUBLIC	??$_Ptr_copy_cat@PEAPEAVValue@Json@@PEAPEAV12@@std@@YA?AU_Really_trivial_ptr_iterator_tag@0@AEBQEAPEAPEAVValue@Json@@0@Z ; std::_Ptr_copy_cat<Json::Value * __ptr64 * __ptr64,Json::Value * __ptr64 * __ptr64>
PUBLIC	??$_Uninitialized_copy_al_unchecked1@PEAVErrorInfo@Reader@Json@@PEAV123@V?$allocator@PEAVErrorInfo@Reader@Json@@@std@@@std@@YAPEAPEAVErrorInfo@Reader@Json@@PEAPEAV123@00AEAU?$_Wrap_alloc@V?$allocator@PEAVErrorInfo@Reader@Json@@@std@@@0@U_Really_trivial_ptr_iterator_tag@0@U?$integral_constant@_N$00@0@@Z ; std::_Uninitialized_copy_al_unchecked1<Json::Reader::ErrorInfo * __ptr64,Json::Reader::ErrorInfo * __ptr64,std::allocator<Json::Reader::ErrorInfo * __ptr64> >
PUBLIC	??$_Ptr_copy_cat@PEAVErrorInfo@Reader@Json@@PEAV123@@std@@YA?AU_Really_trivial_ptr_iterator_tag@0@AEBQEAPEAVErrorInfo@Reader@Json@@0@Z ; std::_Ptr_copy_cat<Json::Reader::ErrorInfo * __ptr64,Json::Reader::ErrorInfo * __ptr64>
PUBLIC	??$construct@PEAVValue@Json@@PEAV12@@?$allocator@PEAVValue@Json@@@std@@QEAAXPEAPEAVValue@Json@@$$QEAPEAV23@@Z ; std::allocator<Json::Value * __ptr64>::construct<Json::Value * __ptr64,Json::Value * __ptr64>
PUBLIC	??$construct@VErrorInfo@Reader@Json@@$$V@?$allocator_traits@V?$allocator@VErrorInfo@Reader@Json@@@std@@@std@@SAXAEAV?$allocator@VErrorInfo@Reader@Json@@@1@PEAVErrorInfo@Reader@Json@@@Z ; std::allocator_traits<std::allocator<Json::Reader::ErrorInfo> >::construct<Json::Reader::ErrorInfo>
PUBLIC	??$construct@VErrorInfo@Reader@Json@@AEBV123@@?$allocator@VErrorInfo@Reader@Json@@@std@@QEAAXPEAVErrorInfo@Reader@Json@@AEBV234@@Z ; std::allocator<Json::Reader::ErrorInfo>::construct<Json::Reader::ErrorInfo,Json::Reader::ErrorInfo const & __ptr64>
PUBLIC	??$_Destroy_range1@V?$allocator@PEAPEAVValue@Json@@@std@@PEAPEAPEAVValue@Json@@@std@@YAXPEAPEAPEAVValue@Json@@0AEAU?$_Wrap_alloc@V?$allocator@PEAPEAVValue@Json@@@std@@@0@U?$integral_constant@_N$00@0@@Z ; std::_Destroy_range1<std::allocator<Json::Value * __ptr64 * __ptr64>,Json::Value * __ptr64 * __ptr64 * __ptr64>
PUBLIC	??$_Uninitialized_default_fill_n1@PEAPEAPEAVValue@Json@@_KV?$allocator@PEAPEAVValue@Json@@@std@@@std@@YAXPEAPEAPEAVValue@Json@@_KAEAU?$_Wrap_alloc@V?$allocator@PEAPEAVValue@Json@@@std@@@0@U?$integral_constant@_N$00@0@@Z ; std::_Uninitialized_default_fill_n1<Json::Value * __ptr64 * __ptr64 * __ptr64,unsigned __int64,std::allocator<Json::Value * __ptr64 * __ptr64> >
PUBLIC	??$_Rechecked@PEAPEAPEAVValue@Json@@PEAPEAPEAV12@@std@@YAAEAPEAPEAPEAVValue@Json@@AEAPEAPEAPEAV12@PEAPEAPEAV12@@Z ; std::_Rechecked<Json::Value * __ptr64 * __ptr64 * __ptr64,Json::Value * __ptr64 * __ptr64 * __ptr64>
PUBLIC	??$_Uninitialized_copy_al_unchecked@PEAPEAPEAVValue@Json@@PEAPEAPEAV12@V?$allocator@PEAPEAVValue@Json@@@std@@@std@@YAPEAPEAPEAVValue@Json@@PEAPEAPEAV12@00AEAU?$_Wrap_alloc@V?$allocator@PEAPEAVValue@Json@@@std@@@0@@Z ; std::_Uninitialized_copy_al_unchecked<Json::Value * __ptr64 * __ptr64 * __ptr64,Json::Value * __ptr64 * __ptr64 * __ptr64,std::allocator<Json::Value * __ptr64 * __ptr64> >
PUBLIC	??$_Unchecked@PEAPEAPEAVValue@Json@@@std@@YAPEAPEAPEAVValue@Json@@PEAPEAPEAV12@@Z ; std::_Unchecked<Json::Value * __ptr64 * __ptr64 * __ptr64>
PUBLIC	??$_Destroy_range1@V?$allocator@PEAVErrorInfo@Reader@Json@@@std@@PEAPEAVErrorInfo@Reader@Json@@@std@@YAXPEAPEAVErrorInfo@Reader@Json@@0AEAU?$_Wrap_alloc@V?$allocator@PEAVErrorInfo@Reader@Json@@@std@@@0@U?$integral_constant@_N$00@0@@Z ; std::_Destroy_range1<std::allocator<Json::Reader::ErrorInfo * __ptr64>,Json::Reader::ErrorInfo * __ptr64 * __ptr64>
PUBLIC	??$_Uninitialized_default_fill_n1@PEAPEAVErrorInfo@Reader@Json@@_KV?$allocator@PEAVErrorInfo@Reader@Json@@@std@@@std@@YAXPEAPEAVErrorInfo@Reader@Json@@_KAEAU?$_Wrap_alloc@V?$allocator@PEAVErrorInfo@Reader@Json@@@std@@@0@U?$integral_constant@_N$00@0@@Z ; std::_Uninitialized_default_fill_n1<Json::Reader::ErrorInfo * __ptr64 * __ptr64,unsigned __int64,std::allocator<Json::Reader::ErrorInfo * __ptr64> >
PUBLIC	??$_Rechecked@PEAPEAVErrorInfo@Reader@Json@@PEAPEAV123@@std@@YAAEAPEAPEAVErrorInfo@Reader@Json@@AEAPEAPEAV123@PEAPEAV123@@Z ; std::_Rechecked<Json::Reader::ErrorInfo * __ptr64 * __ptr64,Json::Reader::ErrorInfo * __ptr64 * __ptr64>
PUBLIC	??$_Uninitialized_copy_al_unchecked@PEAPEAVErrorInfo@Reader@Json@@PEAPEAV123@V?$allocator@PEAVErrorInfo@Reader@Json@@@std@@@std@@YAPEAPEAVErrorInfo@Reader@Json@@PEAPEAV123@00AEAU?$_Wrap_alloc@V?$allocator@PEAVErrorInfo@Reader@Json@@@std@@@0@@Z ; std::_Uninitialized_copy_al_unchecked<Json::Reader::ErrorInfo * __ptr64 * __ptr64,Json::Reader::ErrorInfo * __ptr64 * __ptr64,std::allocator<Json::Reader::ErrorInfo * __ptr64> >
PUBLIC	??$_Unchecked@PEAPEAVErrorInfo@Reader@Json@@@std@@YAPEAPEAVErrorInfo@Reader@Json@@PEAPEAV123@@Z ; std::_Unchecked<Json::Reader::ErrorInfo * __ptr64 * __ptr64>
PUBLIC	??$construct@PEAVValue@Json@@PEAV12@@?$allocator_traits@V?$allocator@PEAVValue@Json@@@std@@@std@@SAXAEAV?$allocator@PEAVValue@Json@@@1@PEAPEAVValue@Json@@$$QEAPEAV34@@Z ; std::allocator_traits<std::allocator<Json::Value * __ptr64> >::construct<Json::Value * __ptr64,Json::Value * __ptr64>
PUBLIC	??$construct@VErrorInfo@Reader@Json@@$$V@?$_Wrap_alloc@V?$allocator@VErrorInfo@Reader@Json@@@std@@@std@@QEAAXPEAVErrorInfo@Reader@Json@@@Z ; std::_Wrap_alloc<std::allocator<Json::Reader::ErrorInfo> >::construct<Json::Reader::ErrorInfo>
PUBLIC	??$construct@VErrorInfo@Reader@Json@@AEBV123@@?$allocator_traits@V?$allocator@VErrorInfo@Reader@Json@@@std@@@std@@SAXAEAV?$allocator@VErrorInfo@Reader@Json@@@1@PEAVErrorInfo@Reader@Json@@AEBV345@@Z ; std::allocator_traits<std::allocator<Json::Reader::ErrorInfo> >::construct<Json::Reader::ErrorInfo,Json::Reader::ErrorInfo const & __ptr64>
PUBLIC	??$forward@AEBVErrorInfo@Reader@Json@@@std@@YAAEBVErrorInfo@Reader@Json@@AEBV123@@Z ; std::forward<Json::Reader::ErrorInfo const & __ptr64>
PUBLIC	??0?$allocator@VErrorInfo@Reader@Json@@@std@@QEAA@XZ ; std::allocator<Json::Reader::ErrorInfo>::allocator<Json::Reader::ErrorInfo>
PUBLIC	??0?$allocator@PEAVValue@Json@@@std@@QEAA@XZ	; std::allocator<Json::Value * __ptr64>::allocator<Json::Value * __ptr64>
PUBLIC	??0?$_Wrap_alloc@V?$allocator@PEAVValue@Json@@@std@@@std@@QEAA@XZ ; std::_Wrap_alloc<std::allocator<Json::Value * __ptr64> >::_Wrap_alloc<std::allocator<Json::Value * __ptr64> >
PUBLIC	??0?$_Deque_val@U?$_Deque_simple_types@PEAVValue@Json@@@std@@@std@@QEAA@XZ ; std::_Deque_val<std::_Deque_simple_types<Json::Value * __ptr64> >::_Deque_val<std::_Deque_simple_types<Json::Value * __ptr64> >
PUBLIC	??0?$_Wrap_alloc@V?$allocator@VErrorInfo@Reader@Json@@@std@@@std@@QEAA@XZ ; std::_Wrap_alloc<std::allocator<Json::Reader::ErrorInfo> >::_Wrap_alloc<std::allocator<Json::Reader::ErrorInfo> >
PUBLIC	??0?$_Deque_val@U?$_Deque_simple_types@VErrorInfo@Reader@Json@@@std@@@std@@QEAA@XZ ; std::_Deque_val<std::_Deque_simple_types<Json::Reader::ErrorInfo> >::_Deque_val<std::_Deque_simple_types<Json::Reader::ErrorInfo> >
PUBLIC	??$_Destroy_range@V?$allocator@PEAPEAVValue@Json@@@std@@PEAPEAPEAVValue@Json@@@std@@YAXPEAPEAPEAVValue@Json@@0AEAU?$_Wrap_alloc@V?$allocator@PEAPEAVValue@Json@@@std@@@0@@Z ; std::_Destroy_range<std::allocator<Json::Value * __ptr64 * __ptr64>,Json::Value * __ptr64 * __ptr64 * __ptr64>
PUBLIC	??$_Uninitialized_default_fill_n@PEAPEAPEAVValue@Json@@_KV?$allocator@PEAPEAVValue@Json@@@std@@@std@@YAXPEAPEAPEAVValue@Json@@_KAEAU?$_Wrap_alloc@V?$allocator@PEAPEAVValue@Json@@@std@@@0@@Z ; std::_Uninitialized_default_fill_n<Json::Value * __ptr64 * __ptr64 * __ptr64,unsigned __int64,std::allocator<Json::Value * __ptr64 * __ptr64> >
PUBLIC	??$_Uninitialized_copy@PEAPEAPEAVValue@Json@@PEAPEAPEAV12@V?$allocator@PEAPEAVValue@Json@@@std@@@std@@YAPEAPEAPEAVValue@Json@@PEAPEAPEAV12@00AEAU?$_Wrap_alloc@V?$allocator@PEAPEAVValue@Json@@@std@@@0@@Z ; std::_Uninitialized_copy<Json::Value * __ptr64 * __ptr64 * __ptr64,Json::Value * __ptr64 * __ptr64 * __ptr64,std::allocator<Json::Value * __ptr64 * __ptr64> >
PUBLIC	??$?0$$V@?$_Compressed_pair@U?$_Wrap_alloc@V?$allocator@PEAVValue@Json@@@std@@@std@@V?$_Deque_val@U?$_Deque_simple_types@PEAVValue@Json@@@std@@@2@$00@std@@QEAA@U_Zero_then_variadic_args_t@1@@Z ; std::_Compressed_pair<std::_Wrap_alloc<std::allocator<Json::Value * __ptr64> >,std::_Deque_val<std::_Deque_simple_types<Json::Value * __ptr64> >,1>::_Compressed_pair<std::_Wrap_alloc<std::allocator<Json::Value * __ptr64> >,std::_Deque_val<std::_Deque_simple_types<Json::Value * __ptr64> >,1><>
PUBLIC	??$_Destroy_range@V?$allocator@PEAVErrorInfo@Reader@Json@@@std@@PEAPEAVErrorInfo@Reader@Json@@@std@@YAXPEAPEAVErrorInfo@Reader@Json@@0AEAU?$_Wrap_alloc@V?$allocator@PEAVErrorInfo@Reader@Json@@@std@@@0@@Z ; std::_Destroy_range<std::allocator<Json::Reader::ErrorInfo * __ptr64>,Json::Reader::ErrorInfo * __ptr64 * __ptr64>
PUBLIC	??$_Uninitialized_default_fill_n@PEAPEAVErrorInfo@Reader@Json@@_KV?$allocator@PEAVErrorInfo@Reader@Json@@@std@@@std@@YAXPEAPEAVErrorInfo@Reader@Json@@_KAEAU?$_Wrap_alloc@V?$allocator@PEAVErrorInfo@Reader@Json@@@std@@@0@@Z ; std::_Uninitialized_default_fill_n<Json::Reader::ErrorInfo * __ptr64 * __ptr64,unsigned __int64,std::allocator<Json::Reader::ErrorInfo * __ptr64> >
PUBLIC	??$_Uninitialized_copy@PEAPEAVErrorInfo@Reader@Json@@PEAPEAV123@V?$allocator@PEAVErrorInfo@Reader@Json@@@std@@@std@@YAPEAPEAVErrorInfo@Reader@Json@@PEAPEAV123@00AEAU?$_Wrap_alloc@V?$allocator@PEAVErrorInfo@Reader@Json@@@std@@@0@@Z ; std::_Uninitialized_copy<Json::Reader::ErrorInfo * __ptr64 * __ptr64,Json::Reader::ErrorInfo * __ptr64 * __ptr64,std::allocator<Json::Reader::ErrorInfo * __ptr64> >
PUBLIC	??$construct@PEAVValue@Json@@PEAV12@@?$_Wrap_alloc@V?$allocator@PEAVValue@Json@@@std@@@std@@QEAAXPEAPEAVValue@Json@@$$QEAPEAV23@@Z ; std::_Wrap_alloc<std::allocator<Json::Value * __ptr64> >::construct<Json::Value * __ptr64,Json::Value * __ptr64>
PUBLIC	??$forward@PEAVValue@Json@@@std@@YA$$QEAPEAVValue@Json@@AEAPEAV12@@Z ; std::forward<Json::Value * __ptr64>
PUBLIC	??$?0$$V@?$_Compressed_pair@U?$_Wrap_alloc@V?$allocator@VErrorInfo@Reader@Json@@@std@@@std@@V?$_Deque_val@U?$_Deque_simple_types@VErrorInfo@Reader@Json@@@std@@@2@$00@std@@QEAA@U_Zero_then_variadic_args_t@1@@Z ; std::_Compressed_pair<std::_Wrap_alloc<std::allocator<Json::Reader::ErrorInfo> >,std::_Deque_val<std::_Deque_simple_types<Json::Reader::ErrorInfo> >,1>::_Compressed_pair<std::_Wrap_alloc<std::allocator<Json::Reader::ErrorInfo> >,std::_Deque_val<std::_Deque_simple_types<Json::Reader::ErrorInfo> >,1><>
PUBLIC	??$emplace_back@$$V@?$deque@VErrorInfo@Reader@Json@@V?$allocator@VErrorInfo@Reader@Json@@@std@@@std@@QEAAXXZ ; std::deque<Json::Reader::ErrorInfo,std::allocator<Json::Reader::ErrorInfo> >::emplace_back<>
PUBLIC	??$construct@VErrorInfo@Reader@Json@@AEBV123@@?$_Wrap_alloc@V?$allocator@VErrorInfo@Reader@Json@@@std@@@std@@QEAAXPEAVErrorInfo@Reader@Json@@AEBV234@@Z ; std::_Wrap_alloc<std::allocator<Json::Reader::ErrorInfo> >::construct<Json::Reader::ErrorInfo,Json::Reader::ErrorInfo const & __ptr64>
PUBLIC	??$move@AEAPEAVValue@Json@@@std@@YA$$QEAPEAVValue@Json@@AEAPEAV12@@Z ; std::move<Json::Value * __ptr64 & __ptr64>
PUBLIC	?max_size@?$allocator@PEAVValue@Json@@@std@@QEBA_KXZ ; std::allocator<Json::Value * __ptr64>::max_size
PUBLIC	?max_size@?$allocator@VErrorInfo@Reader@Json@@@std@@QEBA_KXZ ; std::allocator<Json::Reader::ErrorInfo>::max_size
PUBLIC	?max_size@?$allocator_traits@V?$allocator@PEAVValue@Json@@@std@@@std@@SA_KAEBV?$allocator@PEAVValue@Json@@@2@@Z ; std::allocator_traits<std::allocator<Json::Value * __ptr64> >::max_size
PUBLIC	?_Setcont@?$_Deque_const_iterator@V?$_Deque_val@U?$_Deque_simple_types@PEAVValue@Json@@@std@@@std@@@std@@QEAAXPEBV?$_Deque_val@U?$_Deque_simple_types@PEAVValue@Json@@@std@@@2@@Z ; std::_Deque_const_iterator<std::_Deque_val<std::_Deque_simple_types<Json::Value * __ptr64> > >::_Setcont
PUBLIC	?_Get_first@?$_Compressed_pair@U?$_Wrap_alloc@V?$allocator@PEAVValue@Json@@@std@@@std@@V?$_Deque_val@U?$_Deque_simple_types@PEAVValue@Json@@@std@@@2@$00@std@@QEBAAEBU?$_Wrap_alloc@V?$allocator@PEAVValue@Json@@@std@@@2@XZ ; std::_Compressed_pair<std::_Wrap_alloc<std::allocator<Json::Value * __ptr64> >,std::_Deque_val<std::_Deque_simple_types<Json::Value * __ptr64> >,1>::_Get_first
PUBLIC	?_Getal@?$_Deque_alloc@U?$_Deque_base_types@PEAVValue@Json@@V?$allocator@PEAVValue@Json@@@std@@@std@@@std@@QEBAAEBU?$_Wrap_alloc@V?$allocator@PEAVValue@Json@@@std@@@2@XZ ; std::_Deque_alloc<std::_Deque_base_types<Json::Value * __ptr64,std::allocator<Json::Value * __ptr64> > >::_Getal
PUBLIC	?max_size@?$_Wrap_alloc@V?$allocator@PEAVValue@Json@@@std@@@std@@QEBA_KU_Nil@2@@Z ; std::_Wrap_alloc<std::allocator<Json::Value * __ptr64> >::max_size
PUBLIC	?allocate@?$allocator@PEAPEAVValue@Json@@@std@@QEAAPEAPEAPEAVValue@Json@@_K@Z ; std::allocator<Json::Value * __ptr64 * __ptr64>::allocate
PUBLIC	??Y?$_Deque_iterator@V?$_Deque_val@U?$_Deque_simple_types@PEAVValue@Json@@@std@@@std@@@std@@QEAAAEAV01@_J@Z ; std::_Deque_iterator<std::_Deque_val<std::_Deque_simple_types<Json::Value * __ptr64> > >::operator+=
PUBLIC	??0?$_Deque_const_iterator@V?$_Deque_val@U?$_Deque_simple_types@PEAVValue@Json@@@std@@@std@@@std@@QEAA@_KPEBU_Container_base12@1@@Z ; std::_Deque_const_iterator<std::_Deque_val<std::_Deque_simple_types<Json::Value * __ptr64> > >::_Deque_const_iterator<std::_Deque_val<std::_Deque_simple_types<Json::Value * __ptr64> > >
PUBLIC	?max_size@?$allocator_traits@V?$allocator@VErrorInfo@Reader@Json@@@std@@@std@@SA_KAEBV?$allocator@VErrorInfo@Reader@Json@@@2@@Z ; std::allocator_traits<std::allocator<Json::Reader::ErrorInfo> >::max_size
PUBLIC	?_Get_first@?$_Compressed_pair@U?$_Wrap_alloc@V?$allocator@VErrorInfo@Reader@Json@@@std@@@std@@V?$_Deque_val@U?$_Deque_simple_types@VErrorInfo@Reader@Json@@@std@@@2@$00@std@@QEBAAEBU?$_Wrap_alloc@V?$allocator@VErrorInfo@Reader@Json@@@std@@@2@XZ ; std::_Compressed_pair<std::_Wrap_alloc<std::allocator<Json::Reader::ErrorInfo> >,std::_Deque_val<std::_Deque_simple_types<Json::Reader::ErrorInfo> >,1>::_Get_first
PUBLIC	?allocate@?$allocator@PEAVValue@Json@@@std@@QEAAPEAPEAVValue@Json@@_K@Z ; std::allocator<Json::Value * __ptr64>::allocate
PUBLIC	?max_size@?$deque@PEAVValue@Json@@V?$allocator@PEAVValue@Json@@@std@@@std@@QEBA_KXZ ; std::deque<Json::Value * __ptr64,std::allocator<Json::Value * __ptr64> >::max_size
PUBLIC	?_Xlen@?$deque@PEAVValue@Json@@V?$allocator@PEAVValue@Json@@@std@@@std@@IEBAXXZ ; std::deque<Json::Value * __ptr64,std::allocator<Json::Value * __ptr64> >::_Xlen
PUBLIC	?_Alloc_proxy@?$_Deque_alloc@U?$_Deque_base_types@PEAVValue@Json@@V?$allocator@PEAVValue@Json@@@std@@@std@@@std@@QEAAXXZ ; std::_Deque_alloc<std::_Deque_base_types<Json::Value * __ptr64,std::allocator<Json::Value * __ptr64> > >::_Alloc_proxy
PUBLIC	?allocate@?$_Wrap_alloc@V?$allocator@PEAPEAVValue@Json@@@std@@@std@@QEAAPEAPEAPEAVValue@Json@@_K@Z ; std::_Wrap_alloc<std::allocator<Json::Value * __ptr64 * __ptr64> >::allocate
PUBLIC	??0?$_Deque_iterator@V?$_Deque_val@U?$_Deque_simple_types@PEAVValue@Json@@@std@@@std@@@std@@QEAA@_KPEBU_Container_base12@1@@Z ; std::_Deque_iterator<std::_Deque_val<std::_Deque_simple_types<Json::Value * __ptr64> > >::_Deque_iterator<std::_Deque_val<std::_Deque_simple_types<Json::Value * __ptr64> > >
PUBLIC	??Z?$_Deque_iterator@V?$_Deque_val@U?$_Deque_simple_types@PEAVValue@Json@@@std@@@std@@@std@@QEAAAEAV01@_J@Z ; std::_Deque_iterator<std::_Deque_val<std::_Deque_simple_types<Json::Value * __ptr64> > >::operator-=
PUBLIC	??D?$_Deque_const_iterator@V?$_Deque_val@U?$_Deque_simple_types@PEAVValue@Json@@@std@@@std@@@std@@QEBAAEBQEAVValue@Json@@XZ ; std::_Deque_const_iterator<std::_Deque_val<std::_Deque_simple_types<Json::Value * __ptr64> > >::operator*
PUBLIC	?_Getal@?$_Deque_alloc@U?$_Deque_base_types@VErrorInfo@Reader@Json@@V?$allocator@VErrorInfo@Reader@Json@@@std@@@std@@@std@@QEBAAEBU?$_Wrap_alloc@V?$allocator@VErrorInfo@Reader@Json@@@std@@@2@XZ ; std::_Deque_alloc<std::_Deque_base_types<Json::Reader::ErrorInfo,std::allocator<Json::Reader::ErrorInfo> > >::_Getal
PUBLIC	?max_size@?$_Wrap_alloc@V?$allocator@VErrorInfo@Reader@Json@@@std@@@std@@QEBA_KU_Nil@2@@Z ; std::_Wrap_alloc<std::allocator<Json::Reader::ErrorInfo> >::max_size
PUBLIC	?allocate@?$allocator@PEAVErrorInfo@Reader@Json@@@std@@QEAAPEAPEAVErrorInfo@Reader@Json@@_K@Z ; std::allocator<Json::Reader::ErrorInfo * __ptr64>::allocate
PUBLIC	??0?$_Deque_const_iterator@V?$_Deque_val@U?$_Deque_simple_types@PEAVValue@Json@@@std@@@std@@@std@@QEAA@AEBV01@@Z ; std::_Deque_const_iterator<std::_Deque_val<std::_Deque_simple_types<Json::Value * __ptr64> > >::_Deque_const_iterator<std::_Deque_val<std::_Deque_simple_types<Json::Value * __ptr64> > >
PUBLIC	??0?$_Deque_iterator@V?$_Deque_val@U?$_Deque_simple_types@PEAVValue@Json@@@std@@@std@@@std@@QEAA@AEBV01@@Z ; std::_Deque_iterator<std::_Deque_val<std::_Deque_simple_types<Json::Value * __ptr64> > >::_Deque_iterator<std::_Deque_val<std::_Deque_simple_types<Json::Value * __ptr64> > >
PUBLIC	?allocate@?$allocator@VErrorInfo@Reader@Json@@@std@@QEAAPEAVErrorInfo@Reader@Json@@_K@Z ; std::allocator<Json::Reader::ErrorInfo>::allocate
PUBLIC	?max_size@?$deque@VErrorInfo@Reader@Json@@V?$allocator@VErrorInfo@Reader@Json@@@std@@@std@@QEBA_KXZ ; std::deque<Json::Reader::ErrorInfo,std::allocator<Json::Reader::ErrorInfo> >::max_size
PUBLIC	?_Xlen@?$deque@VErrorInfo@Reader@Json@@V?$allocator@VErrorInfo@Reader@Json@@@std@@@std@@IEBAXXZ ; std::deque<Json::Reader::ErrorInfo,std::allocator<Json::Reader::ErrorInfo> >::_Xlen
PUBLIC	?end@?$deque@PEAVValue@Json@@V?$allocator@PEAVValue@Json@@@std@@@std@@QEAA?AV?$_Deque_iterator@V?$_Deque_val@U?$_Deque_simple_types@PEAVValue@Json@@@std@@@std@@@2@XZ ; std::deque<Json::Value * __ptr64,std::allocator<Json::Value * __ptr64> >::end
PUBLIC	?_Growmap@?$deque@PEAVValue@Json@@V?$allocator@PEAVValue@Json@@@std@@@std@@IEAAX_K@Z ; std::deque<Json::Value * __ptr64,std::allocator<Json::Value * __ptr64> >::_Growmap
PUBLIC	??0?$_Deque_alloc@U?$_Deque_base_types@PEAVValue@Json@@V?$allocator@PEAVValue@Json@@@std@@@std@@@std@@QEAA@XZ ; std::_Deque_alloc<std::_Deque_base_types<Json::Value * __ptr64,std::allocator<Json::Value * __ptr64> > >::_Deque_alloc<std::_Deque_base_types<Json::Value * __ptr64,std::allocator<Json::Value * __ptr64> > >
PUBLIC	?allocate@?$_Wrap_alloc@V?$allocator@PEAVValue@Json@@@std@@@std@@QEAAPEAPEAVValue@Json@@_K@Z ; std::_Wrap_alloc<std::allocator<Json::Value * __ptr64> >::allocate
PUBLIC	??D?$_Deque_iterator@V?$_Deque_val@U?$_Deque_simple_types@PEAVValue@Json@@@std@@@std@@@std@@QEBAAEAPEAVValue@Json@@XZ ; std::_Deque_iterator<std::_Deque_val<std::_Deque_simple_types<Json::Value * __ptr64> > >::operator*
PUBLIC	??G?$_Deque_iterator@V?$_Deque_val@U?$_Deque_simple_types@PEAVValue@Json@@@std@@@std@@@std@@QEBA?AV01@_J@Z ; std::_Deque_iterator<std::_Deque_val<std::_Deque_simple_types<Json::Value * __ptr64> > >::operator-
PUBLIC	?_Alloc_proxy@?$_Deque_alloc@U?$_Deque_base_types@VErrorInfo@Reader@Json@@V?$allocator@VErrorInfo@Reader@Json@@@std@@@std@@@std@@QEAAXXZ ; std::_Deque_alloc<std::_Deque_base_types<Json::Reader::ErrorInfo,std::allocator<Json::Reader::ErrorInfo> > >::_Alloc_proxy
PUBLIC	?allocate@?$_Wrap_alloc@V?$allocator@PEAVErrorInfo@Reader@Json@@@std@@@std@@QEAAPEAPEAVErrorInfo@Reader@Json@@_K@Z ; std::_Wrap_alloc<std::allocator<Json::Reader::ErrorInfo * __ptr64> >::allocate
PUBLIC	??1?$_Deque_const_iterator@V?$_Deque_val@U?$_Deque_simple_types@PEAVValue@Json@@@std@@@std@@@std@@QEAA@XZ ; std::_Deque_const_iterator<std::_Deque_val<std::_Deque_simple_types<Json::Value * __ptr64> > >::~_Deque_const_iterator<std::_Deque_val<std::_Deque_simple_types<Json::Value * __ptr64> > >
PUBLIC	??1?$_Deque_iterator@V?$_Deque_val@U?$_Deque_simple_types@PEAVValue@Json@@@std@@@std@@@std@@QEAA@XZ ; std::_Deque_iterator<std::_Deque_val<std::_Deque_simple_types<Json::Value * __ptr64> > >::~_Deque_iterator<std::_Deque_val<std::_Deque_simple_types<Json::Value * __ptr64> > >
PUBLIC	?_Growmap@?$deque@VErrorInfo@Reader@Json@@V?$allocator@VErrorInfo@Reader@Json@@@std@@@std@@IEAAX_K@Z ; std::deque<Json::Reader::ErrorInfo,std::allocator<Json::Reader::ErrorInfo> >::_Growmap
PUBLIC	??0?$deque@PEAVValue@Json@@V?$allocator@PEAVValue@Json@@@std@@@std@@QEAA@XZ ; std::deque<Json::Value * __ptr64,std::allocator<Json::Value * __ptr64> >::deque<Json::Value * __ptr64,std::allocator<Json::Value * __ptr64> >
PUBLIC	?push_back@?$deque@PEAVValue@Json@@V?$allocator@PEAVValue@Json@@@std@@@std@@QEAAX$$QEAPEAVValue@Json@@@Z ; std::deque<Json::Value * __ptr64,std::allocator<Json::Value * __ptr64> >::push_back
PUBLIC	?back@?$deque@PEAVValue@Json@@V?$allocator@PEAVValue@Json@@@std@@@std@@QEAAAEAPEAVValue@Json@@XZ ; std::deque<Json::Value * __ptr64,std::allocator<Json::Value * __ptr64> >::back
PUBLIC	??0?$_Deque_alloc@U?$_Deque_base_types@VErrorInfo@Reader@Json@@V?$allocator@VErrorInfo@Reader@Json@@@std@@@std@@@std@@QEAA@XZ ; std::_Deque_alloc<std::_Deque_base_types<Json::Reader::ErrorInfo,std::allocator<Json::Reader::ErrorInfo> > >::_Deque_alloc<std::_Deque_base_types<Json::Reader::ErrorInfo,std::allocator<Json::Reader::ErrorInfo> > >
PUBLIC	?allocate@?$_Wrap_alloc@V?$allocator@VErrorInfo@Reader@Json@@@std@@@std@@QEAAPEAVErrorInfo@Reader@Json@@_K@Z ; std::_Wrap_alloc<std::allocator<Json::Reader::ErrorInfo> >::allocate
PUBLIC	??0?$deque@VErrorInfo@Reader@Json@@V?$allocator@VErrorInfo@Reader@Json@@@std@@@std@@QEAA@XZ ; std::deque<Json::Reader::ErrorInfo,std::allocator<Json::Reader::ErrorInfo> >::deque<Json::Reader::ErrorInfo,std::allocator<Json::Reader::ErrorInfo> >
PUBLIC	?resize@?$deque@VErrorInfo@Reader@Json@@V?$allocator@VErrorInfo@Reader@Json@@@std@@@std@@QEAAX_K@Z ; std::deque<Json::Reader::ErrorInfo,std::allocator<Json::Reader::ErrorInfo> >::resize
PUBLIC	?size@?$deque@VErrorInfo@Reader@Json@@V?$allocator@VErrorInfo@Reader@Json@@@std@@@std@@QEBA_KXZ ; std::deque<Json::Reader::ErrorInfo,std::allocator<Json::Reader::ErrorInfo> >::size
PUBLIC	?push_back@?$deque@VErrorInfo@Reader@Json@@V?$allocator@VErrorInfo@Reader@Json@@@std@@@std@@QEAAXAEBVErrorInfo@Reader@Json@@@Z ; std::deque<Json::Reader::ErrorInfo,std::allocator<Json::Reader::ErrorInfo> >::push_back
PUBLIC	?clear@?$deque@VErrorInfo@Reader@Json@@V?$allocator@VErrorInfo@Reader@Json@@@std@@@std@@QEAAXXZ ; std::deque<Json::Reader::ErrorInfo,std::allocator<Json::Reader::ErrorInfo> >::clear
PUBLIC	??0?$stack@PEAVValue@Json@@V?$deque@PEAVValue@Json@@V?$allocator@PEAVValue@Json@@@std@@@std@@@std@@QEAA@XZ ; std::stack<Json::Value * __ptr64,std::deque<Json::Value * __ptr64,std::allocator<Json::Value * __ptr64> > >::stack<Json::Value * __ptr64,std::deque<Json::Value * __ptr64,std::allocator<Json::Value * __ptr64> > >
PUBLIC	?push@?$stack@PEAVValue@Json@@V?$deque@PEAVValue@Json@@V?$allocator@PEAVValue@Json@@@std@@@std@@@std@@QEAAX$$QEAPEAVValue@Json@@@Z ; std::stack<Json::Value * __ptr64,std::deque<Json::Value * __ptr64,std::allocator<Json::Value * __ptr64> > >::push
PUBLIC	?empty@?$stack@PEAVValue@Json@@V?$deque@PEAVValue@Json@@V?$allocator@PEAVValue@Json@@@std@@@std@@@std@@QEBA_NXZ ; std::stack<Json::Value * __ptr64,std::deque<Json::Value * __ptr64,std::allocator<Json::Value * __ptr64> > >::empty
PUBLIC	?top@?$stack@PEAVValue@Json@@V?$deque@PEAVValue@Json@@V?$allocator@PEAVValue@Json@@@std@@@std@@@std@@QEAAAEAPEAVValue@Json@@XZ ; std::stack<Json::Value * __ptr64,std::deque<Json::Value * __ptr64,std::allocator<Json::Value * __ptr64> > >::top
PUBLIC	?pop@?$stack@PEAVValue@Json@@V?$deque@PEAVValue@Json@@V?$allocator@PEAVValue@Json@@@std@@@std@@@std@@QEAAXXZ ; std::stack<Json::Value * __ptr64,std::deque<Json::Value * __ptr64,std::allocator<Json::Value * __ptr64> > >::pop
PUBLIC	?getNextChar@Reader@Json@@AEAADXZ		; Json::Reader::getNextChar
PUBLIC	?currentValue@Reader@Json@@AEAAAEAVValue@2@XZ	; Json::Reader::currentValue
PUBLIC	?addErrorAndRecover@Reader@Json@@AEAA_NAEBV?$basic_string@DU?$char_traits@D@std@@V?$allocator@D@2@@std@@AEAVToken@12@W4TokenType@12@@Z ; Json::Reader::addErrorAndRecover
PUBLIC	?recoverFromError@Reader@Json@@AEAA_NW4TokenType@12@@Z ; Json::Reader::recoverFromError
PUBLIC	??0ErrorInfo@Reader@Json@@QEAA@XZ		; Json::Reader::ErrorInfo::ErrorInfo
PUBLIC	?addError@Reader@Json@@AEAA_NAEBV?$basic_string@DU?$char_traits@D@std@@V?$allocator@D@2@@std@@AEAVToken@12@PEBD@Z ; Json::Reader::addError
PUBLIC	?decodeUnicodeEscapeSequence@Reader@Json@@AEAA_NAEAVToken@12@AEAPEBDPEBDAEAI@Z ; Json::Reader::decodeUnicodeEscapeSequence
PUBLIC	?decodeUnicodeCodePoint@Reader@Json@@AEAA_NAEAVToken@12@AEAPEBDPEBDAEAI@Z ; Json::Reader::decodeUnicodeCodePoint
PUBLIC	?decodeString@Reader@Json@@AEAA_NAEAVToken@12@AEAV?$basic_string@DU?$char_traits@D@std@@V?$allocator@D@2@@std@@@Z ; Json::Reader::decodeString
PUBLIC	?decodeString@Reader@Json@@AEAA_NAEAVToken@12@@Z ; Json::Reader::decodeString
PUBLIC	?decodeDouble@Reader@Json@@AEAA_NAEAVToken@12@@Z ; Json::Reader::decodeDouble
PUBLIC	?decodeNumber@Reader@Json@@AEAA_NAEAVToken@12@@Z ; Json::Reader::decodeNumber
PUBLIC	?readArray@Reader@Json@@AEAA_NAEAVToken@12@@Z	; Json::Reader::readArray
PUBLIC	?readObject@Reader@Json@@AEAA_NAEAVToken@12@@Z	; Json::Reader::readObject
PUBLIC	?readString@Reader@Json@@AEAA_NXZ		; Json::Reader::readString
PUBLIC	?readNumber@Reader@Json@@AEAAXXZ		; Json::Reader::readNumber
PUBLIC	?readCppStyleComment@Reader@Json@@AEAA_NXZ	; Json::Reader::readCppStyleComment
PUBLIC	?readCStyleComment@Reader@Json@@AEAA_NXZ	; Json::Reader::readCStyleComment
PUBLIC	?addComment@Reader@Json@@AEAAXPEBD0W4CommentPlacement@2@@Z ; Json::Reader::addComment
PUBLIC	?readComment@Reader@Json@@AEAA_NXZ		; Json::Reader::readComment
PUBLIC	?match@Reader@Json@@AEAA_NPEBDH@Z		; Json::Reader::match
PUBLIC	?skipSpaces@Reader@Json@@AEAAXXZ		; Json::Reader::skipSpaces
PUBLIC	?readToken@Reader@Json@@AEAA_NAEAVToken@12@@Z	; Json::Reader::readToken
PUBLIC	?skipCommentTokens@Reader@Json@@AEAAXAEAVToken@12@@Z ; Json::Reader::skipCommentTokens
PUBLIC	?readValue@Reader@Json@@AEAA_NXZ		; Json::Reader::readValue
PUBLIC	?parse@Reader@Json@@QEAA_NPEBD0AEAVValue@2@_N@Z	; Json::Reader::parse
PUBLIC	?all@Features@Json@@SA?AV12@XZ			; Json::Features::all
PUBLIC	??0Features@Json@@QEAA@XZ			; Json::Features::Features
PUBLIC	??4_Iterator_base12@std@@QEAAAEAU01@AEBU01@@Z	; std::_Iterator_base12::operator=
PUBLIC	??0_Iterator_base12@std@@QEAA@AEBU01@@Z		; std::_Iterator_base12::_Iterator_base12
PUBLIC	sscanf
PUBLIC	_vsscanf_l
PUBLIC	__local_stdio_scanf_options
PUBLIC	??0Reader@Json@@QEAA@XZ				; Json::Reader::Reader
PUBLIC	?parse@Reader@Json@@QEAA_NAEBV?$basic_string@DU?$char_traits@D@std@@V?$allocator@D@2@@std@@AEAVValue@2@_N@Z ; Json::Reader::parse
PUBLIC	?_OptionsStorage@?1??__local_stdio_scanf_options@@9@4_KA ; `__local_stdio_scanf_options'::`2'::_OptionsStorage
;	COMDAT ?_OptionsStorage@?1??__local_stdio_scanf_options@@9@4_KA
_BSS	SEGMENT
?_OptionsStorage@?1??__local_stdio_scanf_options@@9@4_KA DQ 01H DUP (?) ; `__local_stdio_scanf_options'::`2'::_OptionsStorage
_BSS	ENDS
;	COMDAT pdata
pdata	SEGMENT
$pdata$??$_Copy_memmove@PEAPEAPEAVValue@Json@@PEAPEAPEAV12@@std@@YAPEAPEAPEAVValue@Json@@PEAPEAPEAV12@00@Z DD imagerel $LN4@Copy_memmo
	DD	imagerel $LN4@Copy_memmo+48
	DD	imagerel $unwind$??$_Copy_memmove@PEAPEAPEAVValue@Json@@PEAPEAPEAV12@@std@@YAPEAPEAPEAVValue@Json@@PEAPEAPEAV12@00@Z
pdata	ENDS
;	COMDAT pdata
pdata	SEGMENT
$pdata$??$_Copy_memmove@PEAPEAVErrorInfo@Reader@Json@@PEAPEAV123@@std@@YAPEAPEAVErrorInfo@Reader@Json@@PEAPEAV123@00@Z DD imagerel $LN4@Copy_memmo
	DD	imagerel $LN4@Copy_memmo+48
	DD	imagerel $unwind$??$_Copy_memmove@PEAPEAVErrorInfo@Reader@Json@@PEAPEAV123@@std@@YAPEAPEAVErrorInfo@Reader@Json@@PEAPEAV123@00@Z
pdata	ENDS
;	COMDAT pdata
pdata	SEGMENT
$pdata$??0ErrorInfo@Reader@Json@@QEAA@AEBV012@@Z DD imagerel $LN147@ErrorInfo
	DD	imagerel $LN147@ErrorInfo+93
	DD	imagerel $unwind$??0ErrorInfo@Reader@Json@@QEAA@AEBV012@@Z
pdata	ENDS
;	COMDAT pdata
pdata	SEGMENT
$pdata$??$_Uninitialized_copy_al_unchecked1@PEAPEAVValue@Json@@PEAPEAV12@V?$allocator@PEAPEAVValue@Json@@@std@@@std@@YAPEAPEAPEAVValue@Json@@PEAPEAPEAV12@00AEAU?$_Wrap_alloc@V?$allocator@PEAPEAVValue@Json@@@std@@@0@U_Really_trivial_ptr_iterator_tag@0@U?$integral_constant@_N$00@0@@Z DD imagerel $LN6@Uninitiali
	DD	imagerel $LN6@Uninitiali+48
	DD	imagerel $unwind$??$_Uninitialized_copy_al_unchecked1@PEAPEAVValue@Json@@PEAPEAV12@V?$allocator@PEAPEAVValue@Json@@@std@@@std@@YAPEAPEAPEAVValue@Json@@PEAPEAPEAV12@00AEAU?$_Wrap_alloc@V?$allocator@PEAPEAVValue@Json@@@std@@@0@U_Really_trivial_ptr_iterator_tag@0@U?$integral_constant@_N$00@0@@Z
pdata	ENDS
;	COMDAT pdata
pdata	SEGMENT
$pdata$??$_Uninitialized_copy_al_unchecked1@PEAVErrorInfo@Reader@Json@@PEAV123@V?$allocator@PEAVErrorInfo@Reader@Json@@@std@@@std@@YAPEAPEAVErrorInfo@Reader@Json@@PEAPEAV123@00AEAU?$_Wrap_alloc@V?$allocator@PEAVErrorInfo@Reader@Json@@@std@@@0@U_Really_trivial_ptr_iterator_tag@0@U?$integral_constant@_N$00@0@@Z DD imagerel $LN6@Uninitiali
	DD	imagerel $LN6@Uninitiali+48
	DD	imagerel $unwind$??$_Uninitialized_copy_al_unchecked1@PEAVErrorInfo@Reader@Json@@PEAV123@V?$allocator@PEAVErrorInfo@Reader@Json@@@std@@@std@@YAPEAPEAVErrorInfo@Reader@Json@@PEAPEAV123@00AEAU?$_Wrap_alloc@V?$allocator@PEAVErrorInfo@Reader@Json@@@std@@@0@U_Really_trivial_ptr_iterator_tag@0@U?$integral_constant@_N$00@0@@Z
pdata	ENDS
;	COMDAT pdata
pdata	SEGMENT
$pdata$??$construct@VErrorInfo@Reader@Json@@AEBV123@@?$allocator@VErrorInfo@Reader@Json@@@std@@QEAAXPEAVErrorInfo@Reader@Json@@AEBV234@@Z DD imagerel $LN158@construct
	DD	imagerel $LN158@construct+136
	DD	imagerel $unwind$??$construct@VErrorInfo@Reader@Json@@AEBV123@@?$allocator@VErrorInfo@Reader@Json@@@std@@QEAAXPEAVErrorInfo@Reader@Json@@AEBV234@@Z
pdata	ENDS
;	COMDAT pdata
pdata	SEGMENT
$pdata$?dtor$0@?0???$construct@VErrorInfo@Reader@Json@@AEBV123@@?$allocator@VErrorInfo@Reader@Json@@@std@@QEAAXPEAVErrorInfo@Reader@Json@@AEBV234@@Z@4HA DD imagerel ?dtor$0@?0???$construct@VErrorInfo@Reader@Json@@AEBV123@@?$allocator@VErrorInfo@Reader@Json@@@std@@QEAAXPEAVErrorInfo@Reader@Json@@AEBV234@@Z@4HA
	DD	imagerel ?dtor$0@?0???$construct@VErrorInfo@Reader@Json@@AEBV123@@?$allocator@VErrorInfo@Reader@Json@@@std@@QEAAXPEAVErrorInfo@Reader@Json@@AEBV234@@Z@4HA+28
	DD	imagerel $unwind$?dtor$0@?0???$construct@VErrorInfo@Reader@Json@@AEBV123@@?$allocator@VErrorInfo@Reader@Json@@@std@@QEAAXPEAVErrorInfo@Reader@Json@@AEBV234@@Z@4HA
pdata	ENDS
;	COMDAT pdata
pdata	SEGMENT
$pdata$??$_Uninitialized_copy_al_unchecked@PEAPEAPEAVValue@Json@@PEAPEAPEAV12@V?$allocator@PEAPEAVValue@Json@@@std@@@std@@YAPEAPEAPEAVValue@Json@@PEAPEAPEAV12@00AEAU?$_Wrap_alloc@V?$allocator@PEAPEAVValue@Json@@@std@@@0@@Z DD imagerel $LN10@Uninitiali
	DD	imagerel $LN10@Uninitiali+48
	DD	imagerel $unwind$??$_Uninitialized_copy_al_unchecked@PEAPEAPEAVValue@Json@@PEAPEAPEAV12@V?$allocator@PEAPEAVValue@Json@@@std@@@std@@YAPEAPEAPEAVValue@Json@@PEAPEAPEAV12@00AEAU?$_Wrap_alloc@V?$allocator@PEAPEAVValue@Json@@@std@@@0@@Z
pdata	ENDS
;	COMDAT pdata
pdata	SEGMENT
$pdata$??$_Uninitialized_copy_al_unchecked@PEAPEAVErrorInfo@Reader@Json@@PEAPEAV123@V?$allocator@PEAVErrorInfo@Reader@Json@@@std@@@std@@YAPEAPEAVErrorInfo@Reader@Json@@PEAPEAV123@00AEAU?$_Wrap_alloc@V?$allocator@PEAVErrorInfo@Reader@Json@@@std@@@0@@Z DD imagerel $LN10@Uninitiali
	DD	imagerel $LN10@Uninitiali+48
	DD	imagerel $unwind$??$_Uninitialized_copy_al_unchecked@PEAPEAVErrorInfo@Reader@Json@@PEAPEAV123@V?$allocator@PEAVErrorInfo@Reader@Json@@@std@@@std@@YAPEAPEAVErrorInfo@Reader@Json@@PEAPEAV123@00AEAU?$_Wrap_alloc@V?$allocator@PEAVErrorInfo@Reader@Json@@@std@@@0@@Z
pdata	ENDS
;	COMDAT pdata
pdata	SEGMENT
$pdata$??$construct@VErrorInfo@Reader@Json@@AEBV123@@?$allocator_traits@V?$allocator@VErrorInfo@Reader@Json@@@std@@@std@@SAXAEAV?$allocator@VErrorInfo@Reader@Json@@@1@PEAVErrorInfo@Reader@Json@@AEBV345@@Z DD imagerel $LN164@construct
	DD	imagerel $LN164@construct+136
	DD	imagerel $unwind$??$construct@VErrorInfo@Reader@Json@@AEBV123@@?$allocator_traits@V?$allocator@VErrorInfo@Reader@Json@@@std@@@std@@SAXAEAV?$allocator@VErrorInfo@Reader@Json@@@1@PEAVErrorInfo@Reader@Json@@AEBV345@@Z
pdata	ENDS
;	COMDAT pdata
pdata	SEGMENT
$pdata$?dtor$1@?0???$construct@VErrorInfo@Reader@Json@@AEBV123@@?$allocator_traits@V?$allocator@VErrorInfo@Reader@Json@@@std@@@std@@SAXAEAV?$allocator@VErrorInfo@Reader@Json@@@1@PEAVErrorInfo@Reader@Json@@AEBV345@@Z@4HA DD imagerel ?dtor$1@?0???$construct@VErrorInfo@Reader@Json@@AEBV123@@?$allocator_traits@V?$allocator@VErrorInfo@Reader@Json@@@std@@@std@@SAXAEAV?$allocator@VErrorInfo@Reader@Json@@@1@PEAVErrorInfo@Reader@Json@@AEBV345@@Z@4HA
	DD	imagerel ?dtor$1@?0???$construct@VErrorInfo@Reader@Json@@AEBV123@@?$allocator_traits@V?$allocator@VErrorInfo@Reader@Json@@@std@@@std@@SAXAEAV?$allocator@VErrorInfo@Reader@Json@@@1@PEAVErrorInfo@Reader@Json@@AEBV345@@Z@4HA+28
	DD	imagerel $unwind$?dtor$1@?0???$construct@VErrorInfo@Reader@Json@@AEBV123@@?$allocator_traits@V?$allocator@VErrorInfo@Reader@Json@@@std@@@std@@SAXAEAV?$allocator@VErrorInfo@Reader@Json@@@1@PEAVErrorInfo@Reader@Json@@AEBV345@@Z@4HA
pdata	ENDS
;	COMDAT pdata
pdata	SEGMENT
$pdata$??$_Uninitialized_copy@PEAPEAPEAVValue@Json@@PEAPEAPEAV12@V?$allocator@PEAPEAVValue@Json@@@std@@@std@@YAPEAPEAPEAVValue@Json@@PEAPEAPEAV12@00AEAU?$_Wrap_alloc@V?$allocator@PEAPEAVValue@Json@@@std@@@0@@Z DD imagerel $LN20@Uninitiali
	DD	imagerel $LN20@Uninitiali+48
	DD	imagerel $unwind$??$_Uninitialized_copy@PEAPEAPEAVValue@Json@@PEAPEAPEAV12@V?$allocator@PEAPEAVValue@Json@@@std@@@std@@YAPEAPEAPEAVValue@Json@@PEAPEAPEAV12@00AEAU?$_Wrap_alloc@V?$allocator@PEAPEAVValue@Json@@@std@@@0@@Z
pdata	ENDS
;	COMDAT pdata
pdata	SEGMENT
$pdata$??$_Uninitialized_copy@PEAPEAVErrorInfo@Reader@Json@@PEAPEAV123@V?$allocator@PEAVErrorInfo@Reader@Json@@@std@@@std@@YAPEAPEAVErrorInfo@Reader@Json@@PEAPEAV123@00AEAU?$_Wrap_alloc@V?$allocator@PEAVErrorInfo@Reader@Json@@@std@@@0@@Z DD imagerel $LN20@Uninitiali
	DD	imagerel $LN20@Uninitiali+48
	DD	imagerel $unwind$??$_Uninitialized_copy@PEAPEAVErrorInfo@Reader@Json@@PEAPEAV123@V?$allocator@PEAVErrorInfo@Reader@Json@@@std@@@std@@YAPEAPEAVErrorInfo@Reader@Json@@PEAPEAV123@00AEAU?$_Wrap_alloc@V?$allocator@PEAVErrorInfo@Reader@Json@@@std@@@0@@Z
pdata	ENDS
;	COMDAT pdata
pdata	SEGMENT
$pdata$??$emplace_back@$$V@?$deque@VErrorInfo@Reader@Json@@V?$allocator@VErrorInfo@Reader@Json@@@std@@@std@@QEAAXXZ DD imagerel $LN295@emplace_ba
	DD	imagerel $LN295@emplace_ba+165
	DD	imagerel $unwind$??$emplace_back@$$V@?$deque@VErrorInfo@Reader@Json@@V?$allocator@VErrorInfo@Reader@Json@@@std@@@std@@QEAAXXZ
pdata	ENDS
;	COMDAT pdata
pdata	SEGMENT
$pdata$??$construct@VErrorInfo@Reader@Json@@AEBV123@@?$_Wrap_alloc@V?$allocator@VErrorInfo@Reader@Json@@@std@@@std@@QEAAXPEAVErrorInfo@Reader@Json@@AEBV234@@Z DD imagerel $LN170@construct
	DD	imagerel $LN170@construct+136
	DD	imagerel $unwind$??$construct@VErrorInfo@Reader@Json@@AEBV123@@?$_Wrap_alloc@V?$allocator@VErrorInfo@Reader@Json@@@std@@@std@@QEAAXPEAVErrorInfo@Reader@Json@@AEBV234@@Z
pdata	ENDS
;	COMDAT pdata
pdata	SEGMENT
$pdata$?dtor$2@?0???$construct@VErrorInfo@Reader@Json@@AEBV123@@?$_Wrap_alloc@V?$allocator@VErrorInfo@Reader@Json@@@std@@@std@@QEAAXPEAVErrorInfo@Reader@Json@@AEBV234@@Z@4HA DD imagerel ?dtor$2@?0???$construct@VErrorInfo@Reader@Json@@AEBV123@@?$_Wrap_alloc@V?$allocator@VErrorInfo@Reader@Json@@@std@@@std@@QEAAXPEAVErrorInfo@Reader@Json@@AEBV234@@Z@4HA
	DD	imagerel ?dtor$2@?0???$construct@VErrorInfo@Reader@Json@@AEBV123@@?$_Wrap_alloc@V?$allocator@VErrorInfo@Reader@Json@@@std@@@std@@QEAAXPEAVErrorInfo@Reader@Json@@AEBV234@@Z@4HA+28
	DD	imagerel $unwind$?dtor$2@?0???$construct@VErrorInfo@Reader@Json@@AEBV123@@?$_Wrap_alloc@V?$allocator@VErrorInfo@Reader@Json@@@std@@@std@@QEAAXPEAVErrorInfo@Reader@Json@@AEBV234@@Z@4HA
pdata	ENDS
;	COMDAT pdata
pdata	SEGMENT
$pdata$?allocate@?$allocator@PEAPEAVValue@Json@@@std@@QEAAPEAPEAPEAVValue@Json@@_K@Z DD imagerel $LN17@allocate
	DD	imagerel $LN17@allocate+112
	DD	imagerel $unwind$?allocate@?$allocator@PEAPEAVValue@Json@@@std@@QEAAPEAPEAPEAVValue@Json@@_K@Z
pdata	ENDS
;	COMDAT pdata
pdata	SEGMENT
$pdata$?_Xlen@?$deque@PEAVValue@Json@@V?$allocator@PEAVValue@Json@@@std@@@std@@IEBAXXZ DD imagerel $LN4@Xlen
	DD	imagerel $LN4@Xlen+17
	DD	imagerel $unwind$?_Xlen@?$deque@PEAVValue@Json@@V?$allocator@PEAVValue@Json@@@std@@@std@@IEBAXXZ
pdata	ENDS
;	COMDAT pdata
pdata	SEGMENT
$pdata$?_Alloc_proxy@?$_Deque_alloc@U?$_Deque_base_types@PEAVValue@Json@@V?$allocator@PEAVValue@Json@@@std@@@std@@@std@@QEAAXXZ DD imagerel $LN83@Alloc_prox
	DD	imagerel $LN83@Alloc_prox+45
	DD	imagerel $unwind$?_Alloc_proxy@?$_Deque_alloc@U?$_Deque_base_types@PEAVValue@Json@@V?$allocator@PEAVValue@Json@@@std@@@std@@@std@@QEAAXXZ
pdata	ENDS
;	COMDAT pdata
pdata	SEGMENT
$pdata$?allocate@?$_Wrap_alloc@V?$allocator@PEAPEAVValue@Json@@@std@@@std@@QEAAPEAPEAPEAVValue@Json@@_K@Z DD imagerel $LN20@allocate
	DD	imagerel $LN20@allocate+112
	DD	imagerel $unwind$?allocate@?$_Wrap_alloc@V?$allocator@PEAPEAVValue@Json@@@std@@@std@@QEAAPEAPEAPEAVValue@Json@@_K@Z
pdata	ENDS
;	COMDAT pdata
pdata	SEGMENT
$pdata$?allocate@?$allocator@PEAVErrorInfo@Reader@Json@@@std@@QEAAPEAPEAVErrorInfo@Reader@Json@@_K@Z DD imagerel $LN17@allocate
	DD	imagerel $LN17@allocate+112
	DD	imagerel $unwind$?allocate@?$allocator@PEAVErrorInfo@Reader@Json@@@std@@QEAAPEAPEAVErrorInfo@Reader@Json@@_K@Z
pdata	ENDS
;	COMDAT pdata
pdata	SEGMENT
$pdata$?_Xlen@?$deque@VErrorInfo@Reader@Json@@V?$allocator@VErrorInfo@Reader@Json@@@std@@@std@@IEBAXXZ DD imagerel $LN4@Xlen
	DD	imagerel $LN4@Xlen+17
	DD	imagerel $unwind$?_Xlen@?$deque@VErrorInfo@Reader@Json@@V?$allocator@VErrorInfo@Reader@Json@@@std@@@std@@IEBAXXZ
pdata	ENDS
;	COMDAT pdata
pdata	SEGMENT
$pdata$?_Growmap@?$deque@PEAVValue@Json@@V?$allocator@PEAVValue@Json@@@std@@@std@@IEAAX_K@Z DD imagerel $LN377@Growmap
	DD	imagerel $LN377@Growmap+74
	DD	imagerel $unwind$?_Growmap@?$deque@PEAVValue@Json@@V?$allocator@PEAVValue@Json@@@std@@@std@@IEAAX_K@Z
pdata	ENDS
;	COMDAT pdata
pdata	SEGMENT
$pdata$1$?_Growmap@?$deque@PEAVValue@Json@@V?$allocator@PEAVValue@Json@@@std@@@std@@IEAAX_K@Z DD imagerel $LN377@Growmap+74
	DD	imagerel $LN377@Growmap+187
	DD	imagerel $chain$1$?_Growmap@?$deque@PEAVValue@Json@@V?$allocator@PEAVValue@Json@@@std@@@std@@IEAAX_K@Z
pdata	ENDS
;	COMDAT pdata
pdata	SEGMENT
$pdata$5$?_Growmap@?$deque@PEAVValue@Json@@V?$allocator@PEAVValue@Json@@@std@@@std@@IEAAX_K@Z DD imagerel $LN377@Growmap+187
	DD	imagerel $LN377@Growmap+394
	DD	imagerel $chain$5$?_Growmap@?$deque@PEAVValue@Json@@V?$allocator@PEAVValue@Json@@@std@@@std@@IEAAX_K@Z
pdata	ENDS
;	COMDAT pdata
pdata	SEGMENT
$pdata$6$?_Growmap@?$deque@PEAVValue@Json@@V?$allocator@PEAVValue@Json@@@std@@@std@@IEAAX_K@Z DD imagerel $LN377@Growmap+394
	DD	imagerel $LN377@Growmap+491
	DD	imagerel $chain$6$?_Growmap@?$deque@PEAVValue@Json@@V?$allocator@PEAVValue@Json@@@std@@@std@@IEAAX_K@Z
pdata	ENDS
;	COMDAT pdata
pdata	SEGMENT
$pdata$8$?_Growmap@?$deque@PEAVValue@Json@@V?$allocator@PEAVValue@Json@@@std@@@std@@IEAAX_K@Z DD imagerel $LN377@Growmap+491
	DD	imagerel $LN377@Growmap+533
	DD	imagerel $chain$8$?_Growmap@?$deque@PEAVValue@Json@@V?$allocator@PEAVValue@Json@@@std@@@std@@IEAAX_K@Z
pdata	ENDS
;	COMDAT pdata
pdata	SEGMENT
$pdata$9$?_Growmap@?$deque@PEAVValue@Json@@V?$allocator@PEAVValue@Json@@@std@@@std@@IEAAX_K@Z DD imagerel $LN377@Growmap+533
	DD	imagerel $LN377@Growmap+546
	DD	imagerel $chain$9$?_Growmap@?$deque@PEAVValue@Json@@V?$allocator@PEAVValue@Json@@@std@@@std@@IEAAX_K@Z
pdata	ENDS
;	COMDAT pdata
pdata	SEGMENT
$pdata$??0?$_Deque_alloc@U?$_Deque_base_types@PEAVValue@Json@@V?$allocator@PEAVValue@Json@@@std@@@std@@@std@@QEAA@XZ DD imagerel $LN91@Deque_allo
	DD	imagerel $LN91@Deque_allo+67
	DD	imagerel $unwind$??0?$_Deque_alloc@U?$_Deque_base_types@PEAVValue@Json@@V?$allocator@PEAVValue@Json@@@std@@@std@@@std@@QEAA@XZ
pdata	ENDS
;	COMDAT pdata
pdata	SEGMENT
$pdata$?_Alloc_proxy@?$_Deque_alloc@U?$_Deque_base_types@VErrorInfo@Reader@Json@@V?$allocator@VErrorInfo@Reader@Json@@@std@@@std@@@std@@QEAAXXZ DD imagerel $LN83@Alloc_prox
	DD	imagerel $LN83@Alloc_prox+45
	DD	imagerel $unwind$?_Alloc_proxy@?$_Deque_alloc@U?$_Deque_base_types@VErrorInfo@Reader@Json@@V?$allocator@VErrorInfo@Reader@Json@@@std@@@std@@@std@@QEAAXXZ
pdata	ENDS
;	COMDAT pdata
pdata	SEGMENT
$pdata$?allocate@?$_Wrap_alloc@V?$allocator@PEAVErrorInfo@Reader@Json@@@std@@@std@@QEAAPEAPEAVErrorInfo@Reader@Json@@_K@Z DD imagerel $LN20@allocate
	DD	imagerel $LN20@allocate+112
	DD	imagerel $unwind$?allocate@?$_Wrap_alloc@V?$allocator@PEAVErrorInfo@Reader@Json@@@std@@@std@@QEAAPEAPEAVErrorInfo@Reader@Json@@_K@Z
pdata	ENDS
;	COMDAT pdata
pdata	SEGMENT
$pdata$?_Growmap@?$deque@VErrorInfo@Reader@Json@@V?$allocator@VErrorInfo@Reader@Json@@@std@@@std@@IEAAX_K@Z DD imagerel $LN377@Growmap
	DD	imagerel $LN377@Growmap+74
	DD	imagerel $unwind$?_Growmap@?$deque@VErrorInfo@Reader@Json@@V?$allocator@VErrorInfo@Reader@Json@@@std@@@std@@IEAAX_K@Z
pdata	ENDS
;	COMDAT pdata
pdata	SEGMENT
$pdata$1$?_Growmap@?$deque@VErrorInfo@Reader@Json@@V?$allocator@VErrorInfo@Reader@Json@@@std@@@std@@IEAAX_K@Z DD imagerel $LN377@Growmap+74
	DD	imagerel $LN377@Growmap+184
	DD	imagerel $chain$1$?_Growmap@?$deque@VErrorInfo@Reader@Json@@V?$allocator@VErrorInfo@Reader@Json@@@std@@@std@@IEAAX_K@Z
pdata	ENDS
;	COMDAT pdata
pdata	SEGMENT
$pdata$5$?_Growmap@?$deque@VErrorInfo@Reader@Json@@V?$allocator@VErrorInfo@Reader@Json@@@std@@@std@@IEAAX_K@Z DD imagerel $LN377@Growmap+184
	DD	imagerel $LN377@Growmap+391
	DD	imagerel $chain$5$?_Growmap@?$deque@VErrorInfo@Reader@Json@@V?$allocator@VErrorInfo@Reader@Json@@@std@@@std@@IEAAX_K@Z
pdata	ENDS
;	COMDAT pdata
pdata	SEGMENT
$pdata$6$?_Growmap@?$deque@VErrorInfo@Reader@Json@@V?$allocator@VErrorInfo@Reader@Json@@@std@@@std@@IEAAX_K@Z DD imagerel $LN377@Growmap+391
	DD	imagerel $LN377@Growmap+488
	DD	imagerel $chain$6$?_Growmap@?$deque@VErrorInfo@Reader@Json@@V?$allocator@VErrorInfo@Reader@Json@@@std@@@std@@IEAAX_K@Z
pdata	ENDS
;	COMDAT pdata
pdata	SEGMENT
$pdata$8$?_Growmap@?$deque@VErrorInfo@Reader@Json@@V?$allocator@VErrorInfo@Reader@Json@@@std@@@std@@IEAAX_K@Z DD imagerel $LN377@Growmap+488
	DD	imagerel $LN377@Growmap+530
	DD	imagerel $chain$8$?_Growmap@?$deque@VErrorInfo@Reader@Json@@V?$allocator@VErrorInfo@Reader@Json@@@std@@@std@@IEAAX_K@Z
pdata	ENDS
;	COMDAT pdata
pdata	SEGMENT
$pdata$9$?_Growmap@?$deque@VErrorInfo@Reader@Json@@V?$allocator@VErrorInfo@Reader@Json@@@std@@@std@@IEAAX_K@Z DD imagerel $LN377@Growmap+530
	DD	imagerel $LN377@Growmap+543
	DD	imagerel $chain$9$?_Growmap@?$deque@VErrorInfo@Reader@Json@@V?$allocator@VErrorInfo@Reader@Json@@@std@@@std@@IEAAX_K@Z
pdata	ENDS
;	COMDAT pdata
pdata	SEGMENT
$pdata$??0?$deque@PEAVValue@Json@@V?$allocator@PEAVValue@Json@@@std@@@std@@QEAA@XZ DD imagerel $LN95@deque
	DD	imagerel $LN95@deque+67
	DD	imagerel $unwind$??0?$deque@PEAVValue@Json@@V?$allocator@PEAVValue@Json@@@std@@@std@@QEAA@XZ
pdata	ENDS
;	COMDAT pdata
pdata	SEGMENT
$pdata$?push_back@?$deque@PEAVValue@Json@@V?$allocator@PEAVValue@Json@@@std@@@std@@QEAAX$$QEAPEAVValue@Json@@@Z DD imagerel $LN177@push_back
	DD	imagerel $LN177@push_back+191
	DD	imagerel $unwind$?push_back@?$deque@PEAVValue@Json@@V?$allocator@PEAVValue@Json@@@std@@@std@@QEAAX$$QEAPEAVValue@Json@@@Z
pdata	ENDS
;	COMDAT pdata
pdata	SEGMENT
$pdata$?back@?$deque@PEAVValue@Json@@V?$allocator@PEAVValue@Json@@@std@@@std@@QEAAAEAPEAVValue@Json@@XZ DD imagerel $LN14@back
	DD	imagerel $LN14@back+78
	DD	imagerel $unwind$?back@?$deque@PEAVValue@Json@@V?$allocator@PEAVValue@Json@@@std@@@std@@QEAAAEAPEAVValue@Json@@XZ
pdata	ENDS
;	COMDAT pdata
pdata	SEGMENT
$pdata$??0?$_Deque_alloc@U?$_Deque_base_types@VErrorInfo@Reader@Json@@V?$allocator@VErrorInfo@Reader@Json@@@std@@@std@@@std@@QEAA@XZ DD imagerel $LN91@Deque_allo
	DD	imagerel $LN91@Deque_allo+67
	DD	imagerel $unwind$??0?$_Deque_alloc@U?$_Deque_base_types@VErrorInfo@Reader@Json@@V?$allocator@VErrorInfo@Reader@Json@@@std@@@std@@@std@@QEAA@XZ
pdata	ENDS
;	COMDAT pdata
pdata	SEGMENT
$pdata$??0?$deque@VErrorInfo@Reader@Json@@V?$allocator@VErrorInfo@Reader@Json@@@std@@@std@@QEAA@XZ DD imagerel $LN95@deque
	DD	imagerel $LN95@deque+67
	DD	imagerel $unwind$??0?$deque@VErrorInfo@Reader@Json@@V?$allocator@VErrorInfo@Reader@Json@@@std@@@std@@QEAA@XZ
pdata	ENDS
;	COMDAT pdata
pdata	SEGMENT
$pdata$?resize@?$deque@VErrorInfo@Reader@Json@@V?$allocator@VErrorInfo@Reader@Json@@@std@@@std@@QEAAX_K@Z DD imagerel $LN412@resize
	DD	imagerel $LN412@resize+33
	DD	imagerel $unwind$?resize@?$deque@VErrorInfo@Reader@Json@@V?$allocator@VErrorInfo@Reader@Json@@@std@@@std@@QEAAX_K@Z
pdata	ENDS
;	COMDAT pdata
pdata	SEGMENT
$pdata$0$?resize@?$deque@VErrorInfo@Reader@Json@@V?$allocator@VErrorInfo@Reader@Json@@@std@@@std@@QEAAX_K@Z DD imagerel $LN412@resize+33
	DD	imagerel $LN412@resize+206
	DD	imagerel $chain$0$?resize@?$deque@VErrorInfo@Reader@Json@@V?$allocator@VErrorInfo@Reader@Json@@@std@@@std@@QEAAX_K@Z
pdata	ENDS
;	COMDAT pdata
pdata	SEGMENT
$pdata$1$?resize@?$deque@VErrorInfo@Reader@Json@@V?$allocator@VErrorInfo@Reader@Json@@@std@@@std@@QEAAX_K@Z DD imagerel $LN412@resize+206
	DD	imagerel $LN412@resize+297
	DD	imagerel $chain$1$?resize@?$deque@VErrorInfo@Reader@Json@@V?$allocator@VErrorInfo@Reader@Json@@@std@@@std@@QEAAX_K@Z
pdata	ENDS
;	COMDAT pdata
pdata	SEGMENT
$pdata$?push_back@?$deque@VErrorInfo@Reader@Json@@V?$allocator@VErrorInfo@Reader@Json@@@std@@@std@@QEAAXAEBVErrorInfo@Reader@Json@@@Z DD imagerel $LN154@push_back
	DD	imagerel $LN154@push_back+141
	DD	imagerel $unwind$?push_back@?$deque@VErrorInfo@Reader@Json@@V?$allocator@VErrorInfo@Reader@Json@@@std@@@std@@QEAAXAEBVErrorInfo@Reader@Json@@@Z
pdata	ENDS
;	COMDAT pdata
pdata	SEGMENT
$pdata$??0?$stack@PEAVValue@Json@@V?$deque@PEAVValue@Json@@V?$allocator@PEAVValue@Json@@@std@@@std@@@std@@QEAA@XZ DD imagerel $LN99@stack
	DD	imagerel $LN99@stack+67
	DD	imagerel $unwind$??0?$stack@PEAVValue@Json@@V?$deque@PEAVValue@Json@@V?$allocator@PEAVValue@Json@@@std@@@std@@@std@@QEAA@XZ
pdata	ENDS
;	COMDAT pdata
pdata	SEGMENT
$pdata$?top@?$stack@PEAVValue@Json@@V?$deque@PEAVValue@Json@@V?$allocator@PEAVValue@Json@@@std@@@std@@@std@@QEAAAEAPEAVValue@Json@@XZ DD imagerel $LN16@top
	DD	imagerel $LN16@top+78
	DD	imagerel $unwind$?top@?$stack@PEAVValue@Json@@V?$deque@PEAVValue@Json@@V?$allocator@PEAVValue@Json@@@std@@@std@@@std@@QEAAAEAPEAVValue@Json@@XZ
pdata	ENDS
;	COMDAT pdata
pdata	SEGMENT
$pdata$?currentValue@Reader@Json@@AEAAAEAVValue@2@XZ DD imagerel $LN18@currentVal
	DD	imagerel $LN18@currentVal+82
	DD	imagerel $unwind$?currentValue@Reader@Json@@AEAAAEAVValue@2@XZ
pdata	ENDS
;	COMDAT pdata
pdata	SEGMENT
$pdata$?addErrorAndRecover@Reader@Json@@AEAA_NAEBV?$basic_string@DU?$char_traits@D@std@@V?$allocator@D@2@@std@@AEAVToken@12@W4TokenType@12@@Z DD imagerel $LN27@addErrorAn
	DD	imagerel $LN27@addErrorAn+104
	DD	imagerel $unwind$?addErrorAndRecover@Reader@Json@@AEAA_NAEBV?$basic_string@DU?$char_traits@D@std@@V?$allocator@D@2@@std@@AEAVToken@12@W4TokenType@12@@Z
pdata	ENDS
;	COMDAT pdata
pdata	SEGMENT
$pdata$?recoverFromError@Reader@Json@@AEAA_NW4TokenType@12@@Z DD imagerel $LN25@recoverFro
	DD	imagerel $LN25@recoverFro+103
	DD	imagerel $unwind$?recoverFromError@Reader@Json@@AEAA_NW4TokenType@12@@Z
pdata	ENDS
;	COMDAT pdata
pdata	SEGMENT
$pdata$?addError@Reader@Json@@AEAA_NAEBV?$basic_string@DU?$char_traits@D@std@@V?$allocator@D@2@@std@@AEAVToken@12@PEBD@Z DD imagerel $LN434@addError
	DD	imagerel $LN434@addError+261
	DD	imagerel $unwind$?addError@Reader@Json@@AEAA_NAEBV?$basic_string@DU?$char_traits@D@std@@V?$allocator@D@2@@std@@AEAVToken@12@PEBD@Z
pdata	ENDS
;	COMDAT pdata
pdata	SEGMENT
$pdata$?decodeUnicodeEscapeSequence@Reader@Json@@AEAA_NAEAVToken@12@AEAPEBDPEBDAEAI@Z DD imagerel $LN512@decodeUnic
	DD	imagerel $LN512@decodeUnic+506
	DD	imagerel $unwind$?decodeUnicodeEscapeSequence@Reader@Json@@AEAA_NAEAVToken@12@AEAPEBDPEBDAEAI@Z
pdata	ENDS
;	COMDAT pdata
pdata	SEGMENT
$pdata$?decodeUnicodeCodePoint@Reader@Json@@AEAA_NAEAVToken@12@AEAPEBDPEBDAEAI@Z DD imagerel $LN270@decodeUnic
	DD	imagerel $LN270@decodeUnic+399
	DD	imagerel $unwind$?decodeUnicodeCodePoint@Reader@Json@@AEAA_NAEAVToken@12@AEAPEBDPEBDAEAI@Z
pdata	ENDS
;	COMDAT pdata
pdata	SEGMENT
$pdata$?decodeString@Reader@Json@@AEAA_NAEAVToken@12@AEAV?$basic_string@DU?$char_traits@D@std@@V?$allocator@D@2@@std@@@Z DD imagerel $LN791@decodeStri
	DD	imagerel $LN791@decodeStri+1032
	DD	imagerel $unwind$?decodeString@Reader@Json@@AEAA_NAEAVToken@12@AEAV?$basic_string@DU?$char_traits@D@std@@V?$allocator@D@2@@std@@@Z
pdata	ENDS
;	COMDAT pdata
pdata	SEGMENT
$pdata$?decodeString@Reader@Json@@AEAA_NAEAVToken@12@@Z DD imagerel $LN322@decodeStri
	DD	imagerel $LN322@decodeStri+535
	DD	imagerel $unwind$?decodeString@Reader@Json@@AEAA_NAEAVToken@12@@Z
pdata	ENDS
;	COMDAT pdata
pdata	SEGMENT
$pdata$?decodeDouble@Reader@Json@@AEAA_NAEAVToken@12@@Z DD imagerel $LN811@decodeDoub
	DD	imagerel $LN811@decodeDoub+965
	DD	imagerel $unwind$?decodeDouble@Reader@Json@@AEAA_NAEAVToken@12@@Z
pdata	ENDS
;	COMDAT pdata
pdata	SEGMENT
$pdata$?decodeNumber@Reader@Json@@AEAA_NAEAVToken@12@@Z DD imagerel $LN609@decodeNumb
	DD	imagerel $LN609@decodeNumb+1175
	DD	imagerel $unwind$?decodeNumber@Reader@Json@@AEAA_NAEAVToken@12@@Z
pdata	ENDS
;	COMDAT pdata
pdata	SEGMENT
$pdata$?readArray@Reader@Json@@AEAA_NAEAVToken@12@@Z DD imagerel $LN448
	DD	imagerel $LN448+670
	DD	imagerel $unwind$?readArray@Reader@Json@@AEAA_NAEAVToken@12@@Z
pdata	ENDS
;	COMDAT pdata
pdata	SEGMENT
$pdata$?dtor$2@?0??readArray@Reader@Json@@AEAA_NAEAVToken@12@@Z@4HA DD imagerel ?dtor$2@?0??readArray@Reader@Json@@AEAA_NAEAVToken@12@@Z@4HA
	DD	imagerel ?dtor$2@?0??readArray@Reader@Json@@AEAA_NAEAVToken@12@@Z@4HA+29
	DD	imagerel $unwind$?dtor$2@?0??readArray@Reader@Json@@AEAA_NAEAVToken@12@@Z@4HA
pdata	ENDS
;	COMDAT pdata
pdata	SEGMENT
$pdata$?readObject@Reader@Json@@AEAA_NAEAVToken@12@@Z DD imagerel $LN1286
	DD	imagerel $LN1286+1354
	DD	imagerel $unwind$?readObject@Reader@Json@@AEAA_NAEAVToken@12@@Z
pdata	ENDS
;	COMDAT pdata
pdata	SEGMENT
$pdata$?dtor$32@?0??readObject@Reader@Json@@AEAA_NAEAVToken@12@@Z@4HA DD imagerel ?dtor$32@?0??readObject@Reader@Json@@AEAA_NAEAVToken@12@@Z@4HA
	DD	imagerel ?dtor$32@?0??readObject@Reader@Json@@AEAA_NAEAVToken@12@@Z@4HA+29
	DD	imagerel $unwind$?dtor$32@?0??readObject@Reader@Json@@AEAA_NAEAVToken@12@@Z@4HA
pdata	ENDS
;	COMDAT pdata
pdata	SEGMENT
$pdata$?addComment@Reader@Json@@AEAAXPEBD0W4CommentPlacement@2@@Z DD imagerel $LN563@addComment
	DD	imagerel $LN563@addComment+445
	DD	imagerel $unwind$?addComment@Reader@Json@@AEAAXPEBD0W4CommentPlacement@2@@Z
pdata	ENDS
;	COMDAT pdata
pdata	SEGMENT
$pdata$?readComment@Reader@Json@@AEAA_NXZ DD imagerel $LN73@readCommen
	DD	imagerel $LN73@readCommen+311
	DD	imagerel $unwind$?readComment@Reader@Json@@AEAA_NXZ
pdata	ENDS
;	COMDAT pdata
pdata	SEGMENT
$pdata$?readToken@Reader@Json@@AEAA_NAEAVToken@12@@Z DD imagerel $LN111@readToken
	DD	imagerel $LN111@readToken+938
	DD	imagerel $unwind$?readToken@Reader@Json@@AEAA_NAEAVToken@12@@Z
pdata	ENDS
;	COMDAT pdata
pdata	SEGMENT
$pdata$?skipCommentTokens@Reader@Json@@AEAAXAEAVToken@12@@Z DD imagerel $LN12@skipCommen
	DD	imagerel $LN12@skipCommen+74
	DD	imagerel $unwind$?skipCommentTokens@Reader@Json@@AEAAXAEAVToken@12@@Z
pdata	ENDS
;	COMDAT pdata
pdata	SEGMENT
$pdata$?readValue@Reader@Json@@AEAA_NXZ DD imagerel $LN369
	DD	imagerel $LN369+712
	DD	imagerel $unwind$?readValue@Reader@Json@@AEAA_NXZ
pdata	ENDS
;	COMDAT pdata
pdata	SEGMENT
$pdata$?parse@Reader@Json@@QEAA_NPEBD0AEAVValue@2@_N@Z DD imagerel $LN292@parse
	DD	imagerel $LN292@parse+440
	DD	imagerel $unwind$?parse@Reader@Json@@QEAA_NPEBD0AEAVValue@2@_N@Z
pdata	ENDS
;	COMDAT pdata
pdata	SEGMENT
$pdata$?codePointToUTF8@Json@@YA?AV?$basic_string@DU?$char_traits@D@std@@V?$allocator@D@2@@std@@I@Z DD imagerel ?codePointToUTF8@Json@@YA?AV?$basic_string@DU?$char_traits@D@std@@V?$allocator@D@2@@std@@I@Z
	DD	imagerel ?codePointToUTF8@Json@@YA?AV?$basic_string@DU?$char_traits@D@std@@V?$allocator@D@2@@std@@I@Z+594
	DD	imagerel $unwind$?codePointToUTF8@Json@@YA?AV?$basic_string@DU?$char_traits@D@std@@V?$allocator@D@2@@std@@I@Z
pdata	ENDS
;	COMDAT pdata
pdata	SEGMENT
$pdata$?dtor$0@?0??codePointToUTF8@Json@@YA?AV?$basic_string@DU?$char_traits@D@std@@V?$allocator@D@2@@std@@I@Z@4HA DD imagerel ?dtor$0@?0??codePointToUTF8@Json@@YA?AV?$basic_string@DU?$char_traits@D@std@@V?$allocator@D@2@@std@@I@Z@4HA
	DD	imagerel ?dtor$0@?0??codePointToUTF8@Json@@YA?AV?$basic_string@DU?$char_traits@D@std@@V?$allocator@D@2@@std@@I@Z@4HA+38
	DD	imagerel $unwind$?dtor$0@?0??codePointToUTF8@Json@@YA?AV?$basic_string@DU?$char_traits@D@std@@V?$allocator@D@2@@std@@I@Z@4HA
pdata	ENDS
;	COMDAT pdata
pdata	SEGMENT
$pdata$sscanf DD imagerel $LN8@sscanf
	DD	imagerel $LN8@sscanf+78
	DD	imagerel $unwind$sscanf
pdata	ENDS
;	COMDAT pdata
pdata	SEGMENT
$pdata$_vsscanf_l DD imagerel $LN4@vsscanf_l
	DD	imagerel $LN4@vsscanf_l+77
	DD	imagerel $unwind$_vsscanf_l
pdata	ENDS
;	COMDAT pdata
pdata	SEGMENT
$pdata$??0Reader@Json@@QEAA@XZ DD imagerel $LN448@Reader
	DD	imagerel $LN448@Reader+228
	DD	imagerel $unwind$??0Reader@Json@@QEAA@XZ
pdata	ENDS
;	COMDAT pdata
pdata	SEGMENT
$pdata$?parse@Reader@Json@@QEAA_NAEBV?$basic_string@DU?$char_traits@D@std@@V?$allocator@D@2@@std@@AEAVValue@2@_N@Z DD imagerel $LN181@parse
	DD	imagerel $LN181@parse+92
	DD	imagerel $unwind$?parse@Reader@Json@@QEAA_NAEBV?$basic_string@DU?$char_traits@D@std@@V?$allocator@D@2@@std@@AEAVValue@2@_N@Z
pdata	ENDS
;	COMDAT xdata
xdata	SEGMENT
$unwind$?parse@Reader@Json@@QEAA_NAEBV?$basic_string@DU?$char_traits@D@std@@V?$allocator@D@2@@std@@AEAVValue@2@_N@Z DD 060f01H
	DD	09640fH
	DD	08340fH
	DD	0700b520fH
xdata	ENDS
;	COMDAT xdata
xdata	SEGMENT
$ip2state$??0Reader@Json@@QEAA@XZ DD imagerel ??0Reader@Json@@QEAA@XZ
	DD	0ffffffffH
	DD	imagerel ??0Reader@Json@@QEAA@XZ+81
	DD	00H
	DD	imagerel ??0Reader@Json@@QEAA@XZ+209
	DD	0ffffffffH
xdata	ENDS
;	COMDAT xdata
xdata	SEGMENT
$stateUnwindMap$??0Reader@Json@@QEAA@XZ DD 0ffffffffH
	DD	imagerel ?dtor$0@?0???0Reader@Json@@QEAA@XZ@4HA
xdata	ENDS
;	COMDAT CONST
CONST	SEGMENT
$cppxdata$??0Reader@Json@@QEAA@XZ DQ 00000000119930522r ; 2.33398e-314
	DD	imagerel $stateUnwindMap$??0Reader@Json@@QEAA@XZ
	DQ	00000000000000000r		; 0
	DD	03H
	DD	imagerel $ip2state$??0Reader@Json@@QEAA@XZ
	DQ	00000000000000020r		; 1.58101e-322
	DD	01H
CONST	ENDS
;	COMDAT xdata
xdata	SEGMENT
$unwind$??0Reader@Json@@QEAA@XZ DD 061d11H
	DD	0b641dH
	DD	0a3418H
	DD	07006520aH
	DD	imagerel __CxxFrameHandler3
	DD	imagerel $cppxdata$??0Reader@Json@@QEAA@XZ
xdata	ENDS
;	COMDAT xdata
xdata	SEGMENT
$unwind$_vsscanf_l DD 060f01H
	DD	09640fH
	DD	08340fH
	DD	0700b520fH
xdata	ENDS
;	COMDAT xdata
xdata	SEGMENT
$unwind$sscanf DD 041601H
	DD	070125216H
	DD	030106011H
xdata	ENDS
;	COMDAT xdata
xdata	SEGMENT
$unwind$?dtor$0@?0??codePointToUTF8@Json@@YA?AV?$basic_string@DU?$char_traits@D@std@@V?$allocator@D@2@@std@@I@Z@4HA DD 020601H
	DD	050023206H
xdata	ENDS
;	COMDAT xdata
xdata	SEGMENT
$ip2state$?codePointToUTF8@Json@@YA?AV?$basic_string@DU?$char_traits@D@std@@V?$allocator@D@2@@std@@I@Z DD imagerel ?codePointToUTF8@Json@@YA?AV?$basic_string@DU?$char_traits@D@std@@V?$allocator@D@2@@std@@I@Z
	DD	0ffffffffH
	DD	imagerel ?codePointToUTF8@Json@@YA?AV?$basic_string@DU?$char_traits@D@std@@V?$allocator@D@2@@std@@I@Z+29
	DD	00H
xdata	ENDS
;	COMDAT xdata
xdata	SEGMENT
$stateUnwindMap$?codePointToUTF8@Json@@YA?AV?$basic_string@DU?$char_traits@D@std@@V?$allocator@D@2@@std@@I@Z DD 0ffffffffH
	DD	imagerel ?dtor$0@?0??codePointToUTF8@Json@@YA?AV?$basic_string@DU?$char_traits@D@std@@V?$allocator@D@2@@std@@I@Z@4HA
xdata	ENDS
;	COMDAT CONST
CONST	SEGMENT
$cppxdata$?codePointToUTF8@Json@@YA?AV?$basic_string@DU?$char_traits@D@std@@V?$allocator@D@2@@std@@I@Z DQ 00000000119930522r ; 2.33398e-314
	DD	imagerel $stateUnwindMap$?codePointToUTF8@Json@@YA?AV?$basic_string@DU?$char_traits@D@std@@V?$allocator@D@2@@std@@I@Z
	DQ	00000000000000000r		; 0
	DD	02H
	DD	imagerel $ip2state$?codePointToUTF8@Json@@YA?AV?$basic_string@DU?$char_traits@D@std@@V?$allocator@D@2@@std@@I@Z
	DQ	00000000000000028r		; 1.97626e-322
	DD	01H
CONST	ENDS
;	COMDAT xdata
xdata	SEGMENT
$unwind$?codePointToUTF8@Json@@YA?AV?$basic_string@DU?$char_traits@D@std@@V?$allocator@D@2@@std@@I@Z DD 041811H
	DD	093418H
	DD	07006520aH
	DD	imagerel __CxxFrameHandler3
	DD	imagerel $cppxdata$?codePointToUTF8@Json@@YA?AV?$basic_string@DU?$char_traits@D@std@@V?$allocator@D@2@@std@@I@Z
xdata	ENDS
;	COMDAT xdata
xdata	SEGMENT
$ip2state$?parse@Reader@Json@@QEAA_NPEBD0AEAVValue@2@_N@Z DD imagerel ?parse@Reader@Json@@QEAA_NPEBD0AEAVValue@2@_N@Z
	DD	0ffffffffH
	DD	imagerel ?parse@Reader@Json@@QEAA_NPEBD0AEAVValue@2@_N@Z+372
	DD	00H
	DD	imagerel ?parse@Reader@Json@@QEAA_NPEBD0AEAVValue@2@_N@Z+394
	DD	0ffffffffH
xdata	ENDS
;	COMDAT xdata
xdata	SEGMENT
$stateUnwindMap$?parse@Reader@Json@@QEAA_NPEBD0AEAVValue@2@_N@Z DD 0ffffffffH
	DD	imagerel ?dtor$0@?0??parse@Reader@Json@@QEAA_NPEBD0AEAVValue@2@_N@Z@4HA
xdata	ENDS
;	COMDAT CONST
CONST	SEGMENT
$cppxdata$?parse@Reader@Json@@QEAA_NPEBD0AEAVValue@2@_N@Z DQ 00000000119930522r ; 2.33398e-314
	DD	imagerel $stateUnwindMap$?parse@Reader@Json@@QEAA_NPEBD0AEAVValue@2@_N@Z
	DQ	00000000000000000r		; 0
	DD	03H
	DD	imagerel $ip2state$?parse@Reader@Json@@QEAA_NPEBD0AEAVValue@2@_N@Z
	DQ	00000000000000040r		; 3.16202e-322
	DD	01H
CONST	ENDS
;	COMDAT xdata
xdata	SEGMENT
$unwind$?parse@Reader@Json@@QEAA_NPEBD0AEAVValue@2@_N@Z DD 082719H
	DD	0f00bd20fH
	DD	0c007e009H
	DD	060047005H
	DD	030025003H
	DD	imagerel __GSHandlerCheck_EH
	DD	imagerel $cppxdata$?parse@Reader@Json@@QEAA_NPEBD0AEAVValue@2@_N@Z
	DD	06aH
xdata	ENDS
;	COMDAT xdata
xdata	SEGMENT
$ip2state$?readValue@Reader@Json@@AEAA_NXZ DD imagerel ?readValue@Reader@Json@@AEAA_NXZ
	DD	0ffffffffH
	DD	imagerel ?readValue@Reader@Json@@AEAA_NXZ+218
	DD	00H
	DD	imagerel ?readValue@Reader@Json@@AEAA_NXZ+220
	DD	0ffffffffH
	DD	imagerel ?readValue@Reader@Json@@AEAA_NXZ+318
	DD	00H
	DD	imagerel ?readValue@Reader@Json@@AEAA_NXZ+339
	DD	0ffffffffH
	DD	imagerel ?readValue@Reader@Json@@AEAA_NXZ+367
	DD	01H
	DD	imagerel ?readValue@Reader@Json@@AEAA_NXZ+388
	DD	0ffffffffH
	DD	imagerel ?readValue@Reader@Json@@AEAA_NXZ+405
	DD	03H
	DD	imagerel ?readValue@Reader@Json@@AEAA_NXZ+426
	DD	0ffffffffH
	DD	imagerel ?readValue@Reader@Json@@AEAA_NXZ+525
	DD	04H
	DD	imagerel ?readValue@Reader@Json@@AEAA_NXZ+547
	DD	0ffffffffH
	DD	imagerel ?readValue@Reader@Json@@AEAA_NXZ+676
	DD	00H
xdata	ENDS
;	COMDAT xdata
xdata	SEGMENT
$stateUnwindMap$?readValue@Reader@Json@@AEAA_NXZ DD 0ffffffffH
	DD	imagerel ?dtor$0@?0??readValue@Reader@Json@@AEAA_NXZ@4HA
	DD	0ffffffffH
	DD	imagerel ?dtor$1@?0??readValue@Reader@Json@@AEAA_NXZ@4HA
	DD	0ffffffffH
	DD	00H
	DD	0ffffffffH
	DD	imagerel ?dtor$2@?0??readValue@Reader@Json@@AEAA_NXZ@4HA
	DD	0ffffffffH
	DD	imagerel ?dtor$3@?0??readValue@Reader@Json@@AEAA_NXZ@4HA
xdata	ENDS
;	COMDAT CONST
CONST	SEGMENT
$cppxdata$?readValue@Reader@Json@@AEAA_NXZ DD 019930522H
	DD	05H
	DD	imagerel $stateUnwindMap$?readValue@Reader@Json@@AEAA_NXZ
	DD	00H
	DD	00H
	DD	0cH
	DD	imagerel $ip2state$?readValue@Reader@Json@@AEAA_NXZ
	DD	038H
	DD	00H
	DD	01H
CONST	ENDS
;	COMDAT xdata
xdata	SEGMENT
$unwind$?readValue@Reader@Json@@AEAA_NXZ DD 082c19H
	DD	014641eH
	DD	013341aH
	DD	0e007d20eH
	DD	050047005H
	DD	imagerel __GSHandlerCheck_EH
	DD	imagerel $cppxdata$?readValue@Reader@Json@@AEAA_NXZ
	DD	062H
xdata	ENDS
;	COMDAT xdata
xdata	SEGMENT
$unwind$?skipCommentTokens@Reader@Json@@AEAAXAEAVToken@12@@Z DD 040a01H
	DD	06340aH
	DD	07006320aH
xdata	ENDS
;	COMDAT xdata
xdata	SEGMENT
$unwind$?readToken@Reader@Json@@AEAA_NAEAVToken@12@@Z DD 040a01H
	DD	06340aH
	DD	07006320aH
xdata	ENDS
;	COMDAT xdata
xdata	SEGMENT
$unwind$?readComment@Reader@Json@@AEAA_NXZ DD 010401H
	DD	04204H
xdata	ENDS
;	COMDAT xdata
xdata	SEGMENT
$ip2state$?addComment@Reader@Json@@AEAAXPEBD0W4CommentPlacement@2@@Z DD imagerel ?addComment@Reader@Json@@AEAAXPEBD0W4CommentPlacement@2@@Z
	DD	0ffffffffH
	DD	imagerel ?addComment@Reader@Json@@AEAAXPEBD0W4CommentPlacement@2@@Z+101
	DD	00H
	DD	imagerel ?addComment@Reader@Json@@AEAAXPEBD0W4CommentPlacement@2@@Z+135
	DD	0ffffffffH
	DD	imagerel ?addComment@Reader@Json@@AEAAXPEBD0W4CommentPlacement@2@@Z+311
	DD	01H
	DD	imagerel ?addComment@Reader@Json@@AEAAXPEBD0W4CommentPlacement@2@@Z+336
	DD	0ffffffffH
xdata	ENDS
;	COMDAT xdata
xdata	SEGMENT
$stateUnwindMap$?addComment@Reader@Json@@AEAAXPEBD0W4CommentPlacement@2@@Z DD 0ffffffffH
	DD	imagerel ?dtor$0@?0??addComment@Reader@Json@@AEAAXPEBD0W4CommentPlacement@2@@Z@4HA
	DD	0ffffffffH
	DD	imagerel ?dtor$1@?0??addComment@Reader@Json@@AEAAXPEBD0W4CommentPlacement@2@@Z@4HA
xdata	ENDS
;	COMDAT CONST
CONST	SEGMENT
$cppxdata$?addComment@Reader@Json@@AEAAXPEBD0W4CommentPlacement@2@@Z DQ 00000000219930522r ; 4.45598e-314
	DD	imagerel $stateUnwindMap$?addComment@Reader@Json@@AEAAXPEBD0W4CommentPlacement@2@@Z
	DQ	00000000000000000r		; 0
	DD	05H
	DD	imagerel $ip2state$?addComment@Reader@Json@@AEAAXPEBD0W4CommentPlacement@2@@Z
	DQ	00000000000000020r		; 1.58101e-322
	DD	01H
CONST	ENDS
;	COMDAT xdata
xdata	SEGMENT
$unwind$?addComment@Reader@Json@@AEAAXPEBD0W4CommentPlacement@2@@Z DD 042019H
	DD	070049208H
	DD	030026003H
	DD	imagerel __GSHandlerCheck_EH
	DD	imagerel $cppxdata$?addComment@Reader@Json@@AEAAXPEBD0W4CommentPlacement@2@@Z
	DD	04aH
xdata	ENDS
;	COMDAT xdata
xdata	SEGMENT
$unwind$?dtor$32@?0??readObject@Reader@Json@@AEAA_NAEAVToken@12@@Z@4HA DD 020601H
	DD	050023206H
xdata	ENDS
;	COMDAT xdata
xdata	SEGMENT
$ip2state$?readObject@Reader@Json@@AEAA_NAEAVToken@12@@Z DD imagerel ?readObject@Reader@Json@@AEAA_NAEAVToken@12@@Z
	DD	0ffffffffH
	DD	imagerel ?readObject@Reader@Json@@AEAA_NAEAVToken@12@@Z+70
	DD	00H
	DD	imagerel ?readObject@Reader@Json@@AEAA_NAEAVToken@12@@Z+103
	DD	01H
	DD	imagerel ?readObject@Reader@Json@@AEAA_NAEAVToken@12@@Z+118
	DD	00H
	DD	imagerel ?readObject@Reader@Json@@AEAA_NAEAVToken@12@@Z+122
	DD	02H
	DD	imagerel ?readObject@Reader@Json@@AEAA_NAEAVToken@12@@Z+207
	DD	00H
	DD	imagerel ?readObject@Reader@Json@@AEAA_NAEAVToken@12@@Z+575
	DD	04H
	DD	imagerel ?readObject@Reader@Json@@AEAA_NAEAVToken@12@@Z+662
	DD	00H
	DD	imagerel ?readObject@Reader@Json@@AEAA_NAEAVToken@12@@Z+814
	DD	03H
	DD	imagerel ?readObject@Reader@Json@@AEAA_NAEAVToken@12@@Z+902
	DD	00H
	DD	imagerel ?readObject@Reader@Json@@AEAA_NAEAVToken@12@@Z+1045
	DD	05H
	DD	imagerel ?readObject@Reader@Json@@AEAA_NAEAVToken@12@@Z+1126
	DD	00H
	DD	imagerel ?readObject@Reader@Json@@AEAA_NAEAVToken@12@@Z+1228
	DD	0ffffffffH
xdata	ENDS
;	COMDAT xdata
xdata	SEGMENT
$stateUnwindMap$?readObject@Reader@Json@@AEAA_NAEAVToken@12@@Z DD 0ffffffffH
	DD	imagerel ?dtor$0@?0??readObject@Reader@Json@@AEAA_NAEAVToken@12@@Z@4HA
	DD	00H
	DD	imagerel ?dtor$32@?0??readObject@Reader@Json@@AEAA_NAEAVToken@12@@Z@4HA
	DD	00H
	DD	imagerel ?dtor$1@?0??readObject@Reader@Json@@AEAA_NAEAVToken@12@@Z@4HA
	DD	00H
	DD	imagerel ?dtor$2@?0??readObject@Reader@Json@@AEAA_NAEAVToken@12@@Z@4HA
	DD	00H
	DD	imagerel ?dtor$3@?0??readObject@Reader@Json@@AEAA_NAEAVToken@12@@Z@4HA
	DD	00H
	DD	imagerel ?dtor$4@?0??readObject@Reader@Json@@AEAA_NAEAVToken@12@@Z@4HA
xdata	ENDS
;	COMDAT CONST
CONST	SEGMENT
$cppxdata$?readObject@Reader@Json@@AEAA_NAEAVToken@12@@Z DD 019930522H
	DD	06H
	DD	imagerel $stateUnwindMap$?readObject@Reader@Json@@AEAA_NAEAVToken@12@@Z
	DD	00H
	DD	00H
	DD	0dH
	DD	imagerel $ip2state$?readObject@Reader@Json@@AEAA_NAEAVToken@12@@Z
	DD	040H
	DD	00H
	DD	01H
CONST	ENDS
;	COMDAT xdata
xdata	SEGMENT
$unwind$?readObject@Reader@Json@@AEAA_NAEAVToken@12@@Z DD 093119H
	DD	01b7423H
	DD	01a641fH
	DD	019341bH
	DD	016010fH
	DD	05004H
	DD	imagerel __GSHandlerCheck_EH
	DD	imagerel $cppxdata$?readObject@Reader@Json@@AEAA_NAEAVToken@12@@Z
	DD	0aaH
xdata	ENDS
;	COMDAT xdata
xdata	SEGMENT
$unwind$?dtor$2@?0??readArray@Reader@Json@@AEAA_NAEAVToken@12@@Z@4HA DD 020601H
	DD	050023206H
xdata	ENDS
;	COMDAT xdata
xdata	SEGMENT
$ip2state$?readArray@Reader@Json@@AEAA_NAEAVToken@12@@Z DD imagerel ?readArray@Reader@Json@@AEAA_NAEAVToken@12@@Z
	DD	0ffffffffH
	DD	imagerel ?readArray@Reader@Json@@AEAA_NAEAVToken@12@@Z+87
	DD	00H
	DD	imagerel ?readArray@Reader@Json@@AEAA_NAEAVToken@12@@Z+102
	DD	0ffffffffH
	DD	imagerel ?readArray@Reader@Json@@AEAA_NAEAVToken@12@@Z+106
	DD	01H
	DD	imagerel ?readArray@Reader@Json@@AEAA_NAEAVToken@12@@Z+191
	DD	0ffffffffH
	DD	imagerel ?readArray@Reader@Json@@AEAA_NAEAVToken@12@@Z+455
	DD	02H
	DD	imagerel ?readArray@Reader@Json@@AEAA_NAEAVToken@12@@Z+533
	DD	0ffffffffH
xdata	ENDS
;	COMDAT xdata
xdata	SEGMENT
$stateUnwindMap$?readArray@Reader@Json@@AEAA_NAEAVToken@12@@Z DD 0ffffffffH
	DD	imagerel ?dtor$2@?0??readArray@Reader@Json@@AEAA_NAEAVToken@12@@Z@4HA
	DD	0ffffffffH
	DD	imagerel ?dtor$0@?0??readArray@Reader@Json@@AEAA_NAEAVToken@12@@Z@4HA
	DD	0ffffffffH
	DD	imagerel ?dtor$1@?0??readArray@Reader@Json@@AEAA_NAEAVToken@12@@Z@4HA
xdata	ENDS
;	COMDAT CONST
CONST	SEGMENT
$cppxdata$?readArray@Reader@Json@@AEAA_NAEAVToken@12@@Z DD 019930522H
	DD	03H
	DD	imagerel $stateUnwindMap$?readArray@Reader@Json@@AEAA_NAEAVToken@12@@Z
	DD	00H
	DD	00H
	DD	07H
	DD	imagerel $ip2state$?readArray@Reader@Json@@AEAA_NAEAVToken@12@@Z
	DD	040H
	DD	00H
	DD	01H
CONST	ENDS
;	COMDAT xdata
xdata	SEGMENT
$unwind$?readArray@Reader@Json@@AEAA_NAEAVToken@12@@Z DD 093119H
	DD	0177423H
	DD	016641fH
	DD	015341bH
	DD	012010fH
	DD	05004H
	DD	imagerel __GSHandlerCheck_EH
	DD	imagerel $cppxdata$?readArray@Reader@Json@@AEAA_NAEAVToken@12@@Z
	DD	082H
xdata	ENDS
;	COMDAT xdata
xdata	SEGMENT
$ip2state$?decodeNumber@Reader@Json@@AEAA_NAEAVToken@12@@Z DD imagerel ?decodeNumber@Reader@Json@@AEAA_NAEAVToken@12@@Z
	DD	0ffffffffH
	DD	imagerel ?decodeNumber@Reader@Json@@AEAA_NAEAVToken@12@@Z+273
	DD	00H
	DD	imagerel ?decodeNumber@Reader@Json@@AEAA_NAEAVToken@12@@Z+294
	DD	01H
	DD	imagerel ?decodeNumber@Reader@Json@@AEAA_NAEAVToken@12@@Z+314
	DD	02H
	DD	imagerel ?decodeNumber@Reader@Json@@AEAA_NAEAVToken@12@@Z+334
	DD	01H
	DD	imagerel ?decodeNumber@Reader@Json@@AEAA_NAEAVToken@12@@Z+440
	DD	00H
	DD	imagerel ?decodeNumber@Reader@Json@@AEAA_NAEAVToken@12@@Z+542
	DD	0ffffffffH
	DD	imagerel ?decodeNumber@Reader@Json@@AEAA_NAEAVToken@12@@Z+670
	DD	03H
	DD	imagerel ?decodeNumber@Reader@Json@@AEAA_NAEAVToken@12@@Z+848
	DD	0ffffffffH
	DD	imagerel ?decodeNumber@Reader@Json@@AEAA_NAEAVToken@12@@Z+879
	DD	04H
	DD	imagerel ?decodeNumber@Reader@Json@@AEAA_NAEAVToken@12@@Z+998
	DD	0ffffffffH
	DD	imagerel ?decodeNumber@Reader@Json@@AEAA_NAEAVToken@12@@Z+1014
	DD	05H
	DD	imagerel ?decodeNumber@Reader@Json@@AEAA_NAEAVToken@12@@Z+1133
	DD	0ffffffffH
xdata	ENDS
;	COMDAT xdata
xdata	SEGMENT
$stateUnwindMap$?decodeNumber@Reader@Json@@AEAA_NAEAVToken@12@@Z DD 0ffffffffH
	DD	imagerel ?dtor$0@?0??decodeNumber@Reader@Json@@AEAA_NAEAVToken@12@@Z@4HA
	DD	00H
	DD	imagerel ?dtor$1@?0??decodeNumber@Reader@Json@@AEAA_NAEAVToken@12@@Z@4HA
	DD	01H
	DD	imagerel ?dtor$2@?0??decodeNumber@Reader@Json@@AEAA_NAEAVToken@12@@Z@4HA
	DD	0ffffffffH
	DD	imagerel ?dtor$3@?0??decodeNumber@Reader@Json@@AEAA_NAEAVToken@12@@Z@4HA
	DD	0ffffffffH
	DD	imagerel ?dtor$4@?0??decodeNumber@Reader@Json@@AEAA_NAEAVToken@12@@Z@4HA
	DD	0ffffffffH
	DD	imagerel ?dtor$5@?0??decodeNumber@Reader@Json@@AEAA_NAEAVToken@12@@Z@4HA
xdata	ENDS
;	COMDAT CONST
CONST	SEGMENT
$cppxdata$?decodeNumber@Reader@Json@@AEAA_NAEAVToken@12@@Z DQ 00000000619930522r ; 1.2944e-313
	DD	imagerel $stateUnwindMap$?decodeNumber@Reader@Json@@AEAA_NAEAVToken@12@@Z
	DQ	00000000000000000r		; 0
	DD	0dH
	DD	imagerel $ip2state$?decodeNumber@Reader@Json@@AEAA_NAEAVToken@12@@Z
	DQ	00000000000000038r		; 2.76677e-322
	DD	01H
CONST	ENDS
;	COMDAT xdata
xdata	SEGMENT
$unwind$?decodeNumber@Reader@Json@@AEAA_NAEAVToken@12@@Z DD 072e19H
	DD	01c3420H
	DD	0160110H
	DD	060037004H
	DD	05002H
	DD	imagerel __GSHandlerCheck_EH
	DD	imagerel $cppxdata$?decodeNumber@Reader@Json@@AEAA_NAEAVToken@12@@Z
	DD	0a2H
xdata	ENDS
;	COMDAT xdata
xdata	SEGMENT
$ip2state$?decodeDouble@Reader@Json@@AEAA_NAEAVToken@12@@Z DD imagerel ?decodeDouble@Reader@Json@@AEAA_NAEAVToken@12@@Z
	DD	0ffffffffH
	DD	imagerel ?decodeDouble@Reader@Json@@AEAA_NAEAVToken@12@@Z+349
	DD	00H
	DD	imagerel ?decodeDouble@Reader@Json@@AEAA_NAEAVToken@12@@Z+370
	DD	01H
	DD	imagerel ?decodeDouble@Reader@Json@@AEAA_NAEAVToken@12@@Z+390
	DD	02H
	DD	imagerel ?decodeDouble@Reader@Json@@AEAA_NAEAVToken@12@@Z+410
	DD	01H
	DD	imagerel ?decodeDouble@Reader@Json@@AEAA_NAEAVToken@12@@Z+516
	DD	00H
	DD	imagerel ?decodeDouble@Reader@Json@@AEAA_NAEAVToken@12@@Z+618
	DD	0ffffffffH
	DD	imagerel ?decodeDouble@Reader@Json@@AEAA_NAEAVToken@12@@Z+740
	DD	03H
	DD	imagerel ?decodeDouble@Reader@Json@@AEAA_NAEAVToken@12@@Z+918
	DD	0ffffffffH
xdata	ENDS
;	COMDAT xdata
xdata	SEGMENT
$stateUnwindMap$?decodeDouble@Reader@Json@@AEAA_NAEAVToken@12@@Z DD 0ffffffffH
	DD	imagerel ?dtor$1@?0??decodeDouble@Reader@Json@@AEAA_NAEAVToken@12@@Z@4HA
	DD	00H
	DD	imagerel ?dtor$2@?0??decodeDouble@Reader@Json@@AEAA_NAEAVToken@12@@Z@4HA
	DD	01H
	DD	imagerel ?dtor$3@?0??decodeDouble@Reader@Json@@AEAA_NAEAVToken@12@@Z@4HA
	DD	0ffffffffH
	DD	imagerel ?dtor$4@?0??decodeDouble@Reader@Json@@AEAA_NAEAVToken@12@@Z@4HA
xdata	ENDS
;	COMDAT CONST
CONST	SEGMENT
$cppxdata$?decodeDouble@Reader@Json@@AEAA_NAEAVToken@12@@Z DQ 00000000419930522r ; 8.69997e-314
	DD	imagerel $stateUnwindMap$?decodeDouble@Reader@Json@@AEAA_NAEAVToken@12@@Z
	DQ	00000000000000000r		; 0
	DD	09H
	DD	imagerel $ip2state$?decodeDouble@Reader@Json@@AEAA_NAEAVToken@12@@Z
	DQ	00000000000000040r		; 3.16202e-322
	DD	01H
CONST	ENDS
;	COMDAT xdata
xdata	SEGMENT
$unwind$?decodeDouble@Reader@Json@@AEAA_NAEAVToken@12@@Z DD 093019H
	DD	01d6422H
	DD	01c341eH
	DD	0160112H
	DD	07005e007H
	DD	05004H
	DD	imagerel __GSHandlerCheck_EH
	DD	imagerel $cppxdata$?decodeDouble@Reader@Json@@AEAA_NAEAVToken@12@@Z
	DD	0aaH
xdata	ENDS
;	COMDAT xdata
xdata	SEGMENT
$ip2state$?decodeString@Reader@Json@@AEAA_NAEAVToken@12@@Z DD imagerel ?decodeString@Reader@Json@@AEAA_NAEAVToken@12@@Z
	DD	0ffffffffH
	DD	imagerel ?decodeString@Reader@Json@@AEAA_NAEAVToken@12@@Z+65
	DD	00H
	DD	imagerel ?decodeString@Reader@Json@@AEAA_NAEAVToken@12@@Z+224
	DD	01H
	DD	imagerel ?decodeString@Reader@Json@@AEAA_NAEAVToken@12@@Z+402
	DD	00H
	DD	imagerel ?decodeString@Reader@Json@@AEAA_NAEAVToken@12@@Z+413
	DD	0ffffffffH
xdata	ENDS
;	COMDAT xdata
xdata	SEGMENT
$stateUnwindMap$?decodeString@Reader@Json@@AEAA_NAEAVToken@12@@Z DD 0ffffffffH
	DD	imagerel ?dtor$0@?0??decodeString@Reader@Json@@AEAA_NAEAVToken@12@@Z@4HA
	DD	00H
	DD	imagerel ?dtor$1@?0??decodeString@Reader@Json@@AEAA_NAEAVToken@12@@Z@4HA
xdata	ENDS
;	COMDAT CONST
CONST	SEGMENT
$cppxdata$?decodeString@Reader@Json@@AEAA_NAEAVToken@12@@Z DQ 00000000219930522r ; 4.45598e-314
	DD	imagerel $stateUnwindMap$?decodeString@Reader@Json@@AEAA_NAEAVToken@12@@Z
	DQ	00000000000000000r		; 0
	DD	05H
	DD	imagerel $ip2state$?decodeString@Reader@Json@@AEAA_NAEAVToken@12@@Z
	DQ	00000000000000050r		; 3.95253e-322
	DD	01H
CONST	ENDS
;	COMDAT xdata
xdata	SEGMENT
$unwind$?decodeString@Reader@Json@@AEAA_NAEAVToken@12@@Z DD 072d19H
	DD	01b741fH
	DD	01a341bH
	DD	016010fH
	DD	05004H
	DD	imagerel __GSHandlerCheck_EH
	DD	imagerel $cppxdata$?decodeString@Reader@Json@@AEAA_NAEAVToken@12@@Z
	DD	0aaH
xdata	ENDS
;	COMDAT xdata
xdata	SEGMENT
$ip2state$?decodeString@Reader@Json@@AEAA_NAEAVToken@12@AEAV?$basic_string@DU?$char_traits@D@std@@V?$allocator@D@2@@std@@@Z DD imagerel ?decodeString@Reader@Json@@AEAA_NAEAVToken@12@AEAV?$basic_string@DU?$char_traits@D@std@@V?$allocator@D@2@@std@@@Z
	DD	0ffffffffH
	DD	imagerel ?decodeString@Reader@Json@@AEAA_NAEAVToken@12@AEAV?$basic_string@DU?$char_traits@D@std@@V?$allocator@D@2@@std@@@Z+317
	DD	00H
	DD	imagerel ?decodeString@Reader@Json@@AEAA_NAEAVToken@12@AEAV?$basic_string@DU?$char_traits@D@std@@V?$allocator@D@2@@std@@@Z+319
	DD	0ffffffffH
	DD	imagerel ?decodeString@Reader@Json@@AEAA_NAEAVToken@12@AEAV?$basic_string@DU?$char_traits@D@std@@V?$allocator@D@2@@std@@@Z+423
	DD	01H
	DD	imagerel ?decodeString@Reader@Json@@AEAA_NAEAVToken@12@AEAV?$basic_string@DU?$char_traits@D@std@@V?$allocator@D@2@@std@@@Z+442
	DD	0ffffffffH
	DD	imagerel ?decodeString@Reader@Json@@AEAA_NAEAVToken@12@AEAV?$basic_string@DU?$char_traits@D@std@@V?$allocator@D@2@@std@@@Z+606
	DD	02H
	DD	imagerel ?decodeString@Reader@Json@@AEAA_NAEAVToken@12@AEAV?$basic_string@DU?$char_traits@D@std@@V?$allocator@D@2@@std@@@Z+627
	DD	0ffffffffH
	DD	imagerel ?decodeString@Reader@Json@@AEAA_NAEAVToken@12@AEAV?$basic_string@DU?$char_traits@D@std@@V?$allocator@D@2@@std@@@Z+761
	DD	00H
	DD	imagerel ?decodeString@Reader@Json@@AEAA_NAEAVToken@12@AEAV?$basic_string@DU?$char_traits@D@std@@V?$allocator@D@2@@std@@@Z+782
	DD	0ffffffffH
	DD	imagerel ?decodeString@Reader@Json@@AEAA_NAEAVToken@12@AEAV?$basic_string@DU?$char_traits@D@std@@V?$allocator@D@2@@std@@@Z+908
	DD	00H
xdata	ENDS
;	COMDAT xdata
xdata	SEGMENT
$stateUnwindMap$?decodeString@Reader@Json@@AEAA_NAEAVToken@12@AEAV?$basic_string@DU?$char_traits@D@std@@V?$allocator@D@2@@std@@@Z DD 0ffffffffH
	DD	imagerel ?dtor$0@?0??decodeString@Reader@Json@@AEAA_NAEAVToken@12@AEAV?$basic_string@DU?$char_traits@D@std@@V?$allocator@D@2@@std@@@Z@4HA
	DD	0ffffffffH
	DD	imagerel ?dtor$1@?0??decodeString@Reader@Json@@AEAA_NAEAVToken@12@AEAV?$basic_string@DU?$char_traits@D@std@@V?$allocator@D@2@@std@@@Z@4HA
	DD	0ffffffffH
	DD	imagerel ?dtor$2@?0??decodeString@Reader@Json@@AEAA_NAEAVToken@12@AEAV?$basic_string@DU?$char_traits@D@std@@V?$allocator@D@2@@std@@@Z@4HA
xdata	ENDS
;	COMDAT CONST
CONST	SEGMENT
$cppxdata$?decodeString@Reader@Json@@AEAA_NAEAVToken@12@AEAV?$basic_string@DU?$char_traits@D@std@@V?$allocator@D@2@@std@@@Z DQ 00000000319930522r ; 6.57797e-314
	DD	imagerel $stateUnwindMap$?decodeString@Reader@Json@@AEAA_NAEAVToken@12@AEAV?$basic_string@DU?$char_traits@D@std@@V?$allocator@D@2@@std@@@Z
	DQ	00000000000000000r		; 0
	DD	0aH
	DD	imagerel $ip2state$?decodeString@Reader@Json@@AEAA_NAEAVToken@12@AEAV?$basic_string@DU?$char_traits@D@std@@V?$allocator@D@2@@std@@@Z
	DQ	00000000000000040r		; 3.16202e-322
	DD	01H
CONST	ENDS
;	COMDAT xdata
xdata	SEGMENT
$unwind$?decodeString@Reader@Json@@AEAA_NAEAVToken@12@AEAV?$basic_string@DU?$char_traits@D@std@@V?$allocator@D@2@@std@@@Z DD 082819H
	DD	0f00bd212H
	DD	0c007e009H
	DD	060047005H
	DD	050023003H
	DD	imagerel __GSHandlerCheck_EH
	DD	imagerel $cppxdata$?decodeString@Reader@Json@@AEAA_NAEAVToken@12@AEAV?$basic_string@DU?$char_traits@D@std@@V?$allocator@D@2@@std@@@Z
	DD	06aH
xdata	ENDS
;	COMDAT xdata
xdata	SEGMENT
$ip2state$?decodeUnicodeCodePoint@Reader@Json@@AEAA_NAEAVToken@12@AEAPEBDPEBDAEAI@Z DD imagerel ?decodeUnicodeCodePoint@Reader@Json@@AEAA_NAEAVToken@12@AEAPEBDPEBDAEAI@Z
	DD	0ffffffffH
	DD	imagerel ?decodeUnicodeCodePoint@Reader@Json@@AEAA_NAEAVToken@12@AEAPEBDPEBDAEAI@Z+156
	DD	00H
	DD	imagerel ?decodeUnicodeCodePoint@Reader@Json@@AEAA_NAEAVToken@12@AEAPEBDPEBDAEAI@Z+178
	DD	0ffffffffH
	DD	imagerel ?decodeUnicodeCodePoint@Reader@Json@@AEAA_NAEAVToken@12@AEAPEBDPEBDAEAI@Z+336
	DD	01H
	DD	imagerel ?decodeUnicodeCodePoint@Reader@Json@@AEAA_NAEAVToken@12@AEAPEBDPEBDAEAI@Z+358
	DD	0ffffffffH
xdata	ENDS
;	COMDAT xdata
xdata	SEGMENT
$stateUnwindMap$?decodeUnicodeCodePoint@Reader@Json@@AEAA_NAEAVToken@12@AEAPEBDPEBDAEAI@Z DD 0ffffffffH
	DD	imagerel ?dtor$0@?0??decodeUnicodeCodePoint@Reader@Json@@AEAA_NAEAVToken@12@AEAPEBDPEBDAEAI@Z@4HA
	DD	0ffffffffH
	DD	imagerel ?dtor$1@?0??decodeUnicodeCodePoint@Reader@Json@@AEAA_NAEAVToken@12@AEAPEBDPEBDAEAI@Z@4HA
xdata	ENDS
;	COMDAT CONST
CONST	SEGMENT
$cppxdata$?decodeUnicodeCodePoint@Reader@Json@@AEAA_NAEAVToken@12@AEAPEBDPEBDAEAI@Z DQ 00000000219930522r ; 4.45598e-314
	DD	imagerel $stateUnwindMap$?decodeUnicodeCodePoint@Reader@Json@@AEAA_NAEAVToken@12@AEAPEBDPEBDAEAI@Z
	DQ	00000000000000000r		; 0
	DD	05H
	DD	imagerel $ip2state$?decodeUnicodeCodePoint@Reader@Json@@AEAA_NAEAVToken@12@AEAPEBDPEBDAEAI@Z
	DQ	00000000000000038r		; 2.76677e-322
	DD	01H
CONST	ENDS
;	COMDAT xdata
xdata	SEGMENT
$unwind$?decodeUnicodeCodePoint@Reader@Json@@AEAA_NAEAVToken@12@AEAPEBDPEBDAEAI@Z DD 062319H
	DD	0e007d20bH
	DD	060047005H
	DD	030025003H
	DD	imagerel __GSHandlerCheck_EH
	DD	imagerel $cppxdata$?decodeUnicodeCodePoint@Reader@Json@@AEAA_NAEAVToken@12@AEAPEBDPEBDAEAI@Z
	DD	062H
xdata	ENDS
;	COMDAT xdata
xdata	SEGMENT
$ip2state$?decodeUnicodeEscapeSequence@Reader@Json@@AEAA_NAEAVToken@12@AEAPEBDPEBDAEAI@Z DD imagerel ?decodeUnicodeEscapeSequence@Reader@Json@@AEAA_NAEAVToken@12@AEAPEBDPEBDAEAI@Z
	DD	0ffffffffH
	DD	imagerel ?decodeUnicodeEscapeSequence@Reader@Json@@AEAA_NAEAVToken@12@AEAPEBDPEBDAEAI@Z+106
	DD	00H
	DD	imagerel ?decodeUnicodeEscapeSequence@Reader@Json@@AEAA_NAEAVToken@12@AEAPEBDPEBDAEAI@Z+128
	DD	0ffffffffH
	DD	imagerel ?decodeUnicodeEscapeSequence@Reader@Json@@AEAA_NAEAVToken@12@AEAPEBDPEBDAEAI@Z+368
	DD	01H
	DD	imagerel ?decodeUnicodeEscapeSequence@Reader@Json@@AEAA_NAEAVToken@12@AEAPEBDPEBDAEAI@Z+390
	DD	0ffffffffH
xdata	ENDS
;	COMDAT xdata
xdata	SEGMENT
$stateUnwindMap$?decodeUnicodeEscapeSequence@Reader@Json@@AEAA_NAEAVToken@12@AEAPEBDPEBDAEAI@Z DD 0ffffffffH
	DD	imagerel ?dtor$0@?0??decodeUnicodeEscapeSequence@Reader@Json@@AEAA_NAEAVToken@12@AEAPEBDPEBDAEAI@Z@4HA
	DD	0ffffffffH
	DD	imagerel ?dtor$1@?0??decodeUnicodeEscapeSequence@Reader@Json@@AEAA_NAEAVToken@12@AEAPEBDPEBDAEAI@Z@4HA
xdata	ENDS
;	COMDAT CONST
CONST	SEGMENT
$cppxdata$?decodeUnicodeEscapeSequence@Reader@Json@@AEAA_NAEAVToken@12@AEAPEBDPEBDAEAI@Z DQ 00000000219930522r ; 4.45598e-314
	DD	imagerel $stateUnwindMap$?decodeUnicodeEscapeSequence@Reader@Json@@AEAA_NAEAVToken@12@AEAPEBDPEBDAEAI@Z
	DQ	00000000000000000r		; 0
	DD	05H
	DD	imagerel $ip2state$?decodeUnicodeEscapeSequence@Reader@Json@@AEAA_NAEAVToken@12@AEAPEBDPEBDAEAI@Z
	DQ	00000000000000020r		; 1.58101e-322
	DD	01H
CONST	ENDS
;	COMDAT xdata
xdata	SEGMENT
$unwind$?decodeUnicodeEscapeSequence@Reader@Json@@AEAA_NAEAVToken@12@AEAPEBDPEBDAEAI@Z DD 042019H
	DD	070049208H
	DD	030026003H
	DD	imagerel __GSHandlerCheck_EH
	DD	imagerel $cppxdata$?decodeUnicodeEscapeSequence@Reader@Json@@AEAA_NAEAVToken@12@AEAPEBDPEBDAEAI@Z
	DD	04aH
xdata	ENDS
;	COMDAT xdata
xdata	SEGMENT
$ip2state$?addError@Reader@Json@@AEAA_NAEBV?$basic_string@DU?$char_traits@D@std@@V?$allocator@D@2@@std@@AEAVToken@12@PEBD@Z DD imagerel ?addError@Reader@Json@@AEAA_NAEBV?$basic_string@DU?$char_traits@D@std@@V?$allocator@D@2@@std@@AEAVToken@12@PEBD@Z
	DD	0ffffffffH
	DD	imagerel ?addError@Reader@Json@@AEAA_NAEBV?$basic_string@DU?$char_traits@D@std@@V?$allocator@D@2@@std@@AEAVToken@12@PEBD@Z+63
	DD	00H
	DD	imagerel ?addError@Reader@Json@@AEAA_NAEBV?$basic_string@DU?$char_traits@D@std@@V?$allocator@D@2@@std@@AEAVToken@12@PEBD@Z+226
	DD	0ffffffffH
xdata	ENDS
;	COMDAT xdata
xdata	SEGMENT
$stateUnwindMap$?addError@Reader@Json@@AEAA_NAEBV?$basic_string@DU?$char_traits@D@std@@V?$allocator@D@2@@std@@AEAVToken@12@PEBD@Z DD 0ffffffffH
	DD	imagerel ?dtor$0@?0??addError@Reader@Json@@AEAA_NAEBV?$basic_string@DU?$char_traits@D@std@@V?$allocator@D@2@@std@@AEAVToken@12@PEBD@Z@4HA
xdata	ENDS
;	COMDAT CONST
CONST	SEGMENT
$cppxdata$?addError@Reader@Json@@AEAA_NAEBV?$basic_string@DU?$char_traits@D@std@@V?$allocator@D@2@@std@@AEAVToken@12@PEBD@Z DQ 00000000119930522r ; 2.33398e-314
	DD	imagerel $stateUnwindMap$?addError@Reader@Json@@AEAA_NAEBV?$basic_string@DU?$char_traits@D@std@@V?$allocator@D@2@@std@@AEAVToken@12@PEBD@Z
	DQ	00000000000000000r		; 0
	DD	03H
	DD	imagerel $ip2state$?addError@Reader@Json@@AEAA_NAEBV?$basic_string@DU?$char_traits@D@std@@V?$allocator@D@2@@std@@AEAVToken@12@PEBD@Z
	DQ	00000000000000020r		; 1.58101e-322
	DD	01H
CONST	ENDS
;	COMDAT xdata
xdata	SEGMENT
$unwind$?addError@Reader@Json@@AEAA_NAEBV?$basic_string@DU?$char_traits@D@std@@V?$allocator@D@2@@std@@AEAVToken@12@PEBD@Z DD 042219H
	DD	011010aH
	DD	030027003H
	DD	imagerel __GSHandlerCheck_EH
	DD	imagerel $cppxdata$?addError@Reader@Json@@AEAA_NAEBV?$basic_string@DU?$char_traits@D@std@@V?$allocator@D@2@@std@@AEAVToken@12@PEBD@Z
	DD	072H
xdata	ENDS
;	COMDAT xdata
xdata	SEGMENT
$unwind$?recoverFromError@Reader@Json@@AEAA_NW4TokenType@12@@Z DD 060f01H
	DD	0b640fH
	DD	0a340fH
	DD	0700b720fH
xdata	ENDS
;	COMDAT xdata
xdata	SEGMENT
$unwind$?addErrorAndRecover@Reader@Json@@AEAA_NAEBV?$basic_string@DU?$char_traits@D@std@@V?$allocator@D@2@@std@@AEAVToken@12@W4TokenType@12@@Z DD 060f01H
	DD	0b640fH
	DD	0a340fH
	DD	0700b720fH
xdata	ENDS
;	COMDAT xdata
xdata	SEGMENT
$unwind$?currentValue@Reader@Json@@AEAAAEAVValue@2@XZ DD 010401H
	DD	0a204H
xdata	ENDS
;	COMDAT xdata
xdata	SEGMENT
$unwind$?top@?$stack@PEAVValue@Json@@V?$deque@PEAVValue@Json@@V?$allocator@PEAVValue@Json@@@std@@@std@@@std@@QEAAAEAPEAVValue@Json@@XZ DD 010401H
	DD	0a204H
xdata	ENDS
;	COMDAT xdata
xdata	SEGMENT
$unwind$??0?$stack@PEAVValue@Json@@V?$deque@PEAVValue@Json@@V?$allocator@PEAVValue@Json@@@std@@@std@@@std@@QEAA@XZ DD 020601H
	DD	030023206H
xdata	ENDS
;	COMDAT xdata
xdata	SEGMENT
$unwind$?push_back@?$deque@VErrorInfo@Reader@Json@@V?$allocator@VErrorInfo@Reader@Json@@@std@@@std@@QEAAXAEBVErrorInfo@Reader@Json@@@Z DD 060f01H
	DD	07640fH
	DD	06340fH
	DD	0700b320fH
xdata	ENDS
;	COMDAT xdata
xdata	SEGMENT
$chain$1$?resize@?$deque@VErrorInfo@Reader@Json@@V?$allocator@VErrorInfo@Reader@Json@@@std@@@std@@QEAAX_K@Z DD 021H
	DD	imagerel $LN412@resize
	DD	imagerel $LN412@resize+33
	DD	imagerel $unwind$?resize@?$deque@VErrorInfo@Reader@Json@@V?$allocator@VErrorInfo@Reader@Json@@@std@@@std@@QEAAX_K@Z
xdata	ENDS
;	COMDAT xdata
xdata	SEGMENT
$chain$0$?resize@?$deque@VErrorInfo@Reader@Json@@V?$allocator@VErrorInfo@Reader@Json@@@std@@@std@@QEAAX_K@Z DD 020521H
	DD	067405H
	DD	imagerel $LN412@resize
	DD	imagerel $LN412@resize+33
	DD	imagerel $unwind$?resize@?$deque@VErrorInfo@Reader@Json@@V?$allocator@VErrorInfo@Reader@Json@@@std@@@std@@QEAAX_K@Z
xdata	ENDS
;	COMDAT xdata
xdata	SEGMENT
$unwind$?resize@?$deque@VErrorInfo@Reader@Json@@V?$allocator@VErrorInfo@Reader@Json@@@std@@@std@@QEAAX_K@Z DD 060f01H
	DD	08540fH
	DD	07340fH
	DD	0600b320fH
xdata	ENDS
;	COMDAT xdata
xdata	SEGMENT
$unwind$??0?$deque@VErrorInfo@Reader@Json@@V?$allocator@VErrorInfo@Reader@Json@@@std@@@std@@QEAA@XZ DD 020601H
	DD	030023206H
xdata	ENDS
;	COMDAT xdata
xdata	SEGMENT
$unwind$??0?$_Deque_alloc@U?$_Deque_base_types@VErrorInfo@Reader@Json@@V?$allocator@VErrorInfo@Reader@Json@@@std@@@std@@@std@@QEAA@XZ DD 020601H
	DD	030023206H
xdata	ENDS
;	COMDAT xdata
xdata	SEGMENT
$unwind$?back@?$deque@PEAVValue@Json@@V?$allocator@PEAVValue@Json@@@std@@@std@@QEAAAEAPEAVValue@Json@@XZ DD 010401H
	DD	0a204H
xdata	ENDS
;	COMDAT xdata
xdata	SEGMENT
$unwind$?push_back@?$deque@PEAVValue@Json@@V?$allocator@PEAVValue@Json@@@std@@@std@@QEAAX$$QEAPEAVValue@Json@@@Z DD 081501H
	DD	087415H
	DD	076415H
	DD	063415H
	DD	0e0113215H
xdata	ENDS
;	COMDAT xdata
xdata	SEGMENT
$unwind$??0?$deque@PEAVValue@Json@@V?$allocator@PEAVValue@Json@@@std@@@std@@QEAA@XZ DD 020601H
	DD	030023206H
xdata	ENDS
;	COMDAT xdata
xdata	SEGMENT
$chain$9$?_Growmap@?$deque@VErrorInfo@Reader@Json@@V?$allocator@VErrorInfo@Reader@Json@@@std@@@std@@IEAAX_K@Z DD 021H
	DD	imagerel $LN377@Growmap
	DD	imagerel $LN377@Growmap+74
	DD	imagerel $unwind$?_Growmap@?$deque@VErrorInfo@Reader@Json@@V?$allocator@VErrorInfo@Reader@Json@@@std@@@std@@IEAAX_K@Z
xdata	ENDS
;	COMDAT xdata
xdata	SEGMENT
$chain$8$?_Growmap@?$deque@VErrorInfo@Reader@Json@@V?$allocator@VErrorInfo@Reader@Json@@@std@@@std@@IEAAX_K@Z DD 040021H
	DD	05e400H
	DD	0cc400H
	DD	imagerel $LN377@Growmap
	DD	imagerel $LN377@Growmap+74
	DD	imagerel $unwind$?_Growmap@?$deque@VErrorInfo@Reader@Json@@V?$allocator@VErrorInfo@Reader@Json@@@std@@@std@@IEAAX_K@Z
xdata	ENDS
;	COMDAT xdata
xdata	SEGMENT
$chain$6$?_Growmap@?$deque@VErrorInfo@Reader@Json@@V?$allocator@VErrorInfo@Reader@Json@@@std@@@std@@IEAAX_K@Z DD 021H
	DD	imagerel $LN377@Growmap+74
	DD	imagerel $LN377@Growmap+184
	DD	imagerel $chain$1$?_Growmap@?$deque@VErrorInfo@Reader@Json@@V?$allocator@VErrorInfo@Reader@Json@@@std@@@std@@IEAAX_K@Z
xdata	ENDS
;	COMDAT xdata
xdata	SEGMENT
$chain$5$?_Growmap@?$deque@VErrorInfo@Reader@Json@@V?$allocator@VErrorInfo@Reader@Json@@@std@@@std@@IEAAX_K@Z DD 081c21H
	DD	04f41cH
	DD	06d417H
	DD	0b740aH
	DD	0a6405H
	DD	imagerel $LN377@Growmap+74
	DD	imagerel $LN377@Growmap+184
	DD	imagerel $chain$1$?_Growmap@?$deque@VErrorInfo@Reader@Json@@V?$allocator@VErrorInfo@Reader@Json@@@std@@@std@@IEAAX_K@Z
xdata	ENDS
;	COMDAT xdata
xdata	SEGMENT
$chain$1$?_Growmap@?$deque@VErrorInfo@Reader@Json@@V?$allocator@VErrorInfo@Reader@Json@@@std@@@std@@IEAAX_K@Z DD 041b21H
	DD	05e41bH
	DD	0cc405H
	DD	imagerel $LN377@Growmap
	DD	imagerel $LN377@Growmap+74
	DD	imagerel $unwind$?_Growmap@?$deque@VErrorInfo@Reader@Json@@V?$allocator@VErrorInfo@Reader@Json@@@std@@@std@@IEAAX_K@Z
xdata	ENDS
;	COMDAT xdata
xdata	SEGMENT
$unwind$?_Growmap@?$deque@VErrorInfo@Reader@Json@@V?$allocator@VErrorInfo@Reader@Json@@@std@@@std@@IEAAX_K@Z DD 030701H
	DD	050036207H
	DD	03002H
xdata	ENDS
;	COMDAT xdata
xdata	SEGMENT
$unwind$?allocate@?$_Wrap_alloc@V?$allocator@PEAVErrorInfo@Reader@Json@@@std@@@std@@QEAAPEAPEAVErrorInfo@Reader@Json@@_K@Z DD 010401H
	DD	04204H
xdata	ENDS
;	COMDAT xdata
xdata	SEGMENT
$unwind$?_Alloc_proxy@?$_Deque_alloc@U?$_Deque_base_types@VErrorInfo@Reader@Json@@V?$allocator@VErrorInfo@Reader@Json@@@std@@@std@@@std@@QEAAXXZ DD 020601H
	DD	030023206H
xdata	ENDS
;	COMDAT xdata
xdata	SEGMENT
$unwind$??0?$_Deque_alloc@U?$_Deque_base_types@PEAVValue@Json@@V?$allocator@PEAVValue@Json@@@std@@@std@@@std@@QEAA@XZ DD 020601H
	DD	030023206H
xdata	ENDS
;	COMDAT xdata
xdata	SEGMENT
$chain$9$?_Growmap@?$deque@PEAVValue@Json@@V?$allocator@PEAVValue@Json@@@std@@@std@@IEAAX_K@Z DD 021H
	DD	imagerel $LN377@Growmap
	DD	imagerel $LN377@Growmap+74
	DD	imagerel $unwind$?_Growmap@?$deque@PEAVValue@Json@@V?$allocator@PEAVValue@Json@@@std@@@std@@IEAAX_K@Z
xdata	ENDS
;	COMDAT xdata
xdata	SEGMENT
$chain$8$?_Growmap@?$deque@PEAVValue@Json@@V?$allocator@PEAVValue@Json@@@std@@@std@@IEAAX_K@Z DD 040021H
	DD	04f400H
	DD	05e400H
	DD	imagerel $LN377@Growmap
	DD	imagerel $LN377@Growmap+74
	DD	imagerel $unwind$?_Growmap@?$deque@PEAVValue@Json@@V?$allocator@PEAVValue@Json@@@std@@@std@@IEAAX_K@Z
xdata	ENDS
;	COMDAT xdata
xdata	SEGMENT
$chain$6$?_Growmap@?$deque@PEAVValue@Json@@V?$allocator@PEAVValue@Json@@@std@@@std@@IEAAX_K@Z DD 021H
	DD	imagerel $LN377@Growmap+74
	DD	imagerel $LN377@Growmap+187
	DD	imagerel $chain$1$?_Growmap@?$deque@PEAVValue@Json@@V?$allocator@PEAVValue@Json@@@std@@@std@@IEAAX_K@Z
xdata	ENDS
;	COMDAT xdata
xdata	SEGMENT
$chain$5$?_Growmap@?$deque@PEAVValue@Json@@V?$allocator@PEAVValue@Json@@@std@@@std@@IEAAX_K@Z DD 082b21H
	DD	06d42bH
	DD	0cc413H
	DD	0b740aH
	DD	0a6405H
	DD	imagerel $LN377@Growmap+74
	DD	imagerel $LN377@Growmap+187
	DD	imagerel $chain$1$?_Growmap@?$deque@PEAVValue@Json@@V?$allocator@PEAVValue@Json@@@std@@@std@@IEAAX_K@Z
xdata	ENDS
;	COMDAT xdata
xdata	SEGMENT
$chain$1$?_Growmap@?$deque@PEAVValue@Json@@V?$allocator@PEAVValue@Json@@@std@@@std@@IEAAX_K@Z DD 040d21H
	DD	04f40dH
	DD	05e405H
	DD	imagerel $LN377@Growmap
	DD	imagerel $LN377@Growmap+74
	DD	imagerel $unwind$?_Growmap@?$deque@PEAVValue@Json@@V?$allocator@PEAVValue@Json@@@std@@@std@@IEAAX_K@Z
xdata	ENDS
;	COMDAT xdata
xdata	SEGMENT
$unwind$?_Growmap@?$deque@PEAVValue@Json@@V?$allocator@PEAVValue@Json@@@std@@@std@@IEAAX_K@Z DD 030701H
	DD	050036207H
	DD	03002H
xdata	ENDS
;	COMDAT xdata
xdata	SEGMENT
$unwind$?_Xlen@?$deque@VErrorInfo@Reader@Json@@V?$allocator@VErrorInfo@Reader@Json@@@std@@@std@@IEBAXXZ DD 010401H
	DD	04204H
xdata	ENDS
;	COMDAT xdata
xdata	SEGMENT
$unwind$?allocate@?$allocator@PEAVErrorInfo@Reader@Json@@@std@@QEAAPEAPEAVErrorInfo@Reader@Json@@_K@Z DD 010401H
	DD	04204H
xdata	ENDS
;	COMDAT xdata
xdata	SEGMENT
$unwind$?allocate@?$_Wrap_alloc@V?$allocator@PEAPEAVValue@Json@@@std@@@std@@QEAAPEAPEAPEAVValue@Json@@_K@Z DD 010401H
	DD	04204H
xdata	ENDS
;	COMDAT xdata
xdata	SEGMENT
$unwind$?_Alloc_proxy@?$_Deque_alloc@U?$_Deque_base_types@PEAVValue@Json@@V?$allocator@PEAVValue@Json@@@std@@@std@@@std@@QEAAXXZ DD 020601H
	DD	030023206H
xdata	ENDS
;	COMDAT xdata
xdata	SEGMENT
$unwind$?_Xlen@?$deque@PEAVValue@Json@@V?$allocator@PEAVValue@Json@@@std@@@std@@IEBAXXZ DD 010401H
	DD	04204H
xdata	ENDS
;	COMDAT xdata
xdata	SEGMENT
$unwind$?allocate@?$allocator@PEAPEAVValue@Json@@@std@@QEAAPEAPEAPEAVValue@Json@@_K@Z DD 010401H
	DD	04204H
xdata	ENDS
;	COMDAT xdata
xdata	SEGMENT
$unwind$?dtor$2@?0???$construct@VErrorInfo@Reader@Json@@AEBV123@@?$_Wrap_alloc@V?$allocator@VErrorInfo@Reader@Json@@@std@@@std@@QEAAXPEAVErrorInfo@Reader@Json@@AEBV234@@Z@4HA DD 020601H
	DD	050023206H
xdata	ENDS
;	COMDAT xdata
xdata	SEGMENT
$ip2state$??$construct@VErrorInfo@Reader@Json@@AEBV123@@?$_Wrap_alloc@V?$allocator@VErrorInfo@Reader@Json@@@std@@@std@@QEAAXPEAVErrorInfo@Reader@Json@@AEBV234@@Z DD imagerel ??$construct@VErrorInfo@Reader@Json@@AEBV123@@?$_Wrap_alloc@V?$allocator@VErrorInfo@Reader@Json@@@std@@@std@@QEAAXPEAVErrorInfo@Reader@Json@@AEBV234@@Z
	DD	0ffffffffH
	DD	imagerel ??$construct@VErrorInfo@Reader@Json@@AEBV123@@?$_Wrap_alloc@V?$allocator@VErrorInfo@Reader@Json@@@std@@@std@@QEAAXPEAVErrorInfo@Reader@Json@@AEBV234@@Z+40
	DD	00H
	DD	imagerel ??$construct@VErrorInfo@Reader@Json@@AEBV123@@?$_Wrap_alloc@V?$allocator@VErrorInfo@Reader@Json@@@std@@@std@@QEAAXPEAVErrorInfo@Reader@Json@@AEBV234@@Z+125
	DD	0ffffffffH
xdata	ENDS
;	COMDAT xdata
xdata	SEGMENT
$stateUnwindMap$??$construct@VErrorInfo@Reader@Json@@AEBV123@@?$_Wrap_alloc@V?$allocator@VErrorInfo@Reader@Json@@@std@@@std@@QEAAXPEAVErrorInfo@Reader@Json@@AEBV234@@Z DD 0ffffffffH
	DD	imagerel ?dtor$2@?0???$construct@VErrorInfo@Reader@Json@@AEBV123@@?$_Wrap_alloc@V?$allocator@VErrorInfo@Reader@Json@@@std@@@std@@QEAAXPEAVErrorInfo@Reader@Json@@AEBV234@@Z@4HA
xdata	ENDS
;	COMDAT CONST
CONST	SEGMENT
$cppxdata$??$construct@VErrorInfo@Reader@Json@@AEBV123@@?$_Wrap_alloc@V?$allocator@VErrorInfo@Reader@Json@@@std@@@std@@QEAAXPEAVErrorInfo@Reader@Json@@AEBV234@@Z DQ 00000000119930522r ; 2.33398e-314
	DD	imagerel $stateUnwindMap$??$construct@VErrorInfo@Reader@Json@@AEBV123@@?$_Wrap_alloc@V?$allocator@VErrorInfo@Reader@Json@@@std@@@std@@QEAAXPEAVErrorInfo@Reader@Json@@AEBV234@@Z
	DQ	00000000000000000r		; 0
	DD	03H
	DD	imagerel $ip2state$??$construct@VErrorInfo@Reader@Json@@AEBV123@@?$_Wrap_alloc@V?$allocator@VErrorInfo@Reader@Json@@@std@@@std@@QEAAXPEAVErrorInfo@Reader@Json@@AEBV234@@Z
	DQ	00000000000000020r		; 1.58101e-322
	DD	01H
CONST	ENDS
;	COMDAT xdata
xdata	SEGMENT
$unwind$??$construct@VErrorInfo@Reader@Json@@AEBV123@@?$_Wrap_alloc@V?$allocator@VErrorInfo@Reader@Json@@@std@@@std@@QEAAXPEAVErrorInfo@Reader@Json@@AEBV234@@Z DD 041d11H
	DD	0a341dH
	DD	0700b520fH
	DD	imagerel __CxxFrameHandler3
	DD	imagerel $cppxdata$??$construct@VErrorInfo@Reader@Json@@AEBV123@@?$_Wrap_alloc@V?$allocator@VErrorInfo@Reader@Json@@@std@@@std@@QEAAXPEAVErrorInfo@Reader@Json@@AEBV234@@Z
xdata	ENDS
;	COMDAT xdata
xdata	SEGMENT
$unwind$??$emplace_back@$$V@?$deque@VErrorInfo@Reader@Json@@V?$allocator@VErrorInfo@Reader@Json@@@std@@@std@@QEAAXXZ DD 040a01H
	DD	06340aH
	DD	07006320aH
xdata	ENDS
;	COMDAT xdata
xdata	SEGMENT
$unwind$??$_Uninitialized_copy@PEAPEAVErrorInfo@Reader@Json@@PEAPEAV123@V?$allocator@PEAVErrorInfo@Reader@Json@@@std@@@std@@YAPEAPEAVErrorInfo@Reader@Json@@PEAPEAV123@00AEAU?$_Wrap_alloc@V?$allocator@PEAVErrorInfo@Reader@Json@@@std@@@0@@Z DD 040a01H
	DD	06340aH
	DD	07006320aH
xdata	ENDS
;	COMDAT xdata
xdata	SEGMENT
$unwind$??$_Uninitialized_copy@PEAPEAPEAVValue@Json@@PEAPEAPEAV12@V?$allocator@PEAPEAVValue@Json@@@std@@@std@@YAPEAPEAPEAVValue@Json@@PEAPEAPEAV12@00AEAU?$_Wrap_alloc@V?$allocator@PEAPEAVValue@Json@@@std@@@0@@Z DD 040a01H
	DD	06340aH
	DD	07006320aH
xdata	ENDS
;	COMDAT xdata
xdata	SEGMENT
$unwind$?dtor$1@?0???$construct@VErrorInfo@Reader@Json@@AEBV123@@?$allocator_traits@V?$allocator@VErrorInfo@Reader@Json@@@std@@@std@@SAXAEAV?$allocator@VErrorInfo@Reader@Json@@@1@PEAVErrorInfo@Reader@Json@@AEBV345@@Z@4HA DD 020601H
	DD	050023206H
xdata	ENDS
;	COMDAT xdata
xdata	SEGMENT
$ip2state$??$construct@VErrorInfo@Reader@Json@@AEBV123@@?$allocator_traits@V?$allocator@VErrorInfo@Reader@Json@@@std@@@std@@SAXAEAV?$allocator@VErrorInfo@Reader@Json@@@1@PEAVErrorInfo@Reader@Json@@AEBV345@@Z DD imagerel ??$construct@VErrorInfo@Reader@Json@@AEBV123@@?$allocator_traits@V?$allocator@VErrorInfo@Reader@Json@@@std@@@std@@SAXAEAV?$allocator@VErrorInfo@Reader@Json@@@1@PEAVErrorInfo@Reader@Json@@AEBV345@@Z
	DD	0ffffffffH
	DD	imagerel ??$construct@VErrorInfo@Reader@Json@@AEBV123@@?$allocator_traits@V?$allocator@VErrorInfo@Reader@Json@@@std@@@std@@SAXAEAV?$allocator@VErrorInfo@Reader@Json@@@1@PEAVErrorInfo@Reader@Json@@AEBV345@@Z+40
	DD	00H
	DD	imagerel ??$construct@VErrorInfo@Reader@Json@@AEBV123@@?$allocator_traits@V?$allocator@VErrorInfo@Reader@Json@@@std@@@std@@SAXAEAV?$allocator@VErrorInfo@Reader@Json@@@1@PEAVErrorInfo@Reader@Json@@AEBV345@@Z+125
	DD	0ffffffffH
xdata	ENDS
;	COMDAT xdata
xdata	SEGMENT
$stateUnwindMap$??$construct@VErrorInfo@Reader@Json@@AEBV123@@?$allocator_traits@V?$allocator@VErrorInfo@Reader@Json@@@std@@@std@@SAXAEAV?$allocator@VErrorInfo@Reader@Json@@@1@PEAVErrorInfo@Reader@Json@@AEBV345@@Z DD 0ffffffffH
	DD	imagerel ?dtor$1@?0???$construct@VErrorInfo@Reader@Json@@AEBV123@@?$allocator_traits@V?$allocator@VErrorInfo@Reader@Json@@@std@@@std@@SAXAEAV?$allocator@VErrorInfo@Reader@Json@@@1@PEAVErrorInfo@Reader@Json@@AEBV345@@Z@4HA
xdata	ENDS
;	COMDAT CONST
CONST	SEGMENT
$cppxdata$??$construct@VErrorInfo@Reader@Json@@AEBV123@@?$allocator_traits@V?$allocator@VErrorInfo@Reader@Json@@@std@@@std@@SAXAEAV?$allocator@VErrorInfo@Reader@Json@@@1@PEAVErrorInfo@Reader@Json@@AEBV345@@Z DQ 00000000119930522r ; 2.33398e-314
	DD	imagerel $stateUnwindMap$??$construct@VErrorInfo@Reader@Json@@AEBV123@@?$allocator_traits@V?$allocator@VErrorInfo@Reader@Json@@@std@@@std@@SAXAEAV?$allocator@VErrorInfo@Reader@Json@@@1@PEAVErrorInfo@Reader@Json@@AEBV345@@Z
	DQ	00000000000000000r		; 0
	DD	03H
	DD	imagerel $ip2state$??$construct@VErrorInfo@Reader@Json@@AEBV123@@?$allocator_traits@V?$allocator@VErrorInfo@Reader@Json@@@std@@@std@@SAXAEAV?$allocator@VErrorInfo@Reader@Json@@@1@PEAVErrorInfo@Reader@Json@@AEBV345@@Z
	DQ	00000000000000020r		; 1.58101e-322
	DD	01H
CONST	ENDS
;	COMDAT xdata
xdata	SEGMENT
$unwind$??$construct@VErrorInfo@Reader@Json@@AEBV123@@?$allocator_traits@V?$allocator@VErrorInfo@Reader@Json@@@std@@@std@@SAXAEAV?$allocator@VErrorInfo@Reader@Json@@@1@PEAVErrorInfo@Reader@Json@@AEBV345@@Z DD 041d11H
	DD	0a341dH
	DD	0700b520fH
	DD	imagerel __CxxFrameHandler3
	DD	imagerel $cppxdata$??$construct@VErrorInfo@Reader@Json@@AEBV123@@?$allocator_traits@V?$allocator@VErrorInfo@Reader@Json@@@std@@@std@@SAXAEAV?$allocator@VErrorInfo@Reader@Json@@@1@PEAVErrorInfo@Reader@Json@@AEBV345@@Z
xdata	ENDS
;	COMDAT xdata
xdata	SEGMENT
$unwind$??$_Uninitialized_copy_al_unchecked@PEAPEAVErrorInfo@Reader@Json@@PEAPEAV123@V?$allocator@PEAVErrorInfo@Reader@Json@@@std@@@std@@YAPEAPEAVErrorInfo@Reader@Json@@PEAPEAV123@00AEAU?$_Wrap_alloc@V?$allocator@PEAVErrorInfo@Reader@Json@@@std@@@0@@Z DD 040a01H
	DD	06340aH
	DD	07006320aH
xdata	ENDS
;	COMDAT xdata
xdata	SEGMENT
$unwind$??$_Uninitialized_copy_al_unchecked@PEAPEAPEAVValue@Json@@PEAPEAPEAV12@V?$allocator@PEAPEAVValue@Json@@@std@@@std@@YAPEAPEAPEAVValue@Json@@PEAPEAPEAV12@00AEAU?$_Wrap_alloc@V?$allocator@PEAPEAVValue@Json@@@std@@@0@@Z DD 040a01H
	DD	06340aH
	DD	07006320aH
xdata	ENDS
;	COMDAT xdata
xdata	SEGMENT
$unwind$?dtor$0@?0???$construct@VErrorInfo@Reader@Json@@AEBV123@@?$allocator@VErrorInfo@Reader@Json@@@std@@QEAAXPEAVErrorInfo@Reader@Json@@AEBV234@@Z@4HA DD 020601H
	DD	050023206H
xdata	ENDS
;	COMDAT xdata
xdata	SEGMENT
$ip2state$??$construct@VErrorInfo@Reader@Json@@AEBV123@@?$allocator@VErrorInfo@Reader@Json@@@std@@QEAAXPEAVErrorInfo@Reader@Json@@AEBV234@@Z DD imagerel ??$construct@VErrorInfo@Reader@Json@@AEBV123@@?$allocator@VErrorInfo@Reader@Json@@@std@@QEAAXPEAVErrorInfo@Reader@Json@@AEBV234@@Z
	DD	0ffffffffH
	DD	imagerel ??$construct@VErrorInfo@Reader@Json@@AEBV123@@?$allocator@VErrorInfo@Reader@Json@@@std@@QEAAXPEAVErrorInfo@Reader@Json@@AEBV234@@Z+40
	DD	00H
	DD	imagerel ??$construct@VErrorInfo@Reader@Json@@AEBV123@@?$allocator@VErrorInfo@Reader@Json@@@std@@QEAAXPEAVErrorInfo@Reader@Json@@AEBV234@@Z+125
	DD	0ffffffffH
xdata	ENDS
;	COMDAT xdata
xdata	SEGMENT
$stateUnwindMap$??$construct@VErrorInfo@Reader@Json@@AEBV123@@?$allocator@VErrorInfo@Reader@Json@@@std@@QEAAXPEAVErrorInfo@Reader@Json@@AEBV234@@Z DD 0ffffffffH
	DD	imagerel ?dtor$0@?0???$construct@VErrorInfo@Reader@Json@@AEBV123@@?$allocator@VErrorInfo@Reader@Json@@@std@@QEAAXPEAVErrorInfo@Reader@Json@@AEBV234@@Z@4HA
xdata	ENDS
;	COMDAT CONST
CONST	SEGMENT
$cppxdata$??$construct@VErrorInfo@Reader@Json@@AEBV123@@?$allocator@VErrorInfo@Reader@Json@@@std@@QEAAXPEAVErrorInfo@Reader@Json@@AEBV234@@Z DQ 00000000119930522r ; 2.33398e-314
	DD	imagerel $stateUnwindMap$??$construct@VErrorInfo@Reader@Json@@AEBV123@@?$allocator@VErrorInfo@Reader@Json@@@std@@QEAAXPEAVErrorInfo@Reader@Json@@AEBV234@@Z
	DQ	00000000000000000r		; 0
	DD	03H
	DD	imagerel $ip2state$??$construct@VErrorInfo@Reader@Json@@AEBV123@@?$allocator@VErrorInfo@Reader@Json@@@std@@QEAAXPEAVErrorInfo@Reader@Json@@AEBV234@@Z
	DQ	00000000000000020r		; 1.58101e-322
	DD	01H
CONST	ENDS
;	COMDAT xdata
xdata	SEGMENT
$unwind$??$construct@VErrorInfo@Reader@Json@@AEBV123@@?$allocator@VErrorInfo@Reader@Json@@@std@@QEAAXPEAVErrorInfo@Reader@Json@@AEBV234@@Z DD 041d11H
	DD	0a341dH
	DD	0700b520fH
	DD	imagerel __CxxFrameHandler3
	DD	imagerel $cppxdata$??$construct@VErrorInfo@Reader@Json@@AEBV123@@?$allocator@VErrorInfo@Reader@Json@@@std@@QEAAXPEAVErrorInfo@Reader@Json@@AEBV234@@Z
xdata	ENDS
;	COMDAT xdata
xdata	SEGMENT
$unwind$??$_Uninitialized_copy_al_unchecked1@PEAVErrorInfo@Reader@Json@@PEAV123@V?$allocator@PEAVErrorInfo@Reader@Json@@@std@@@std@@YAPEAPEAVErrorInfo@Reader@Json@@PEAPEAV123@00AEAU?$_Wrap_alloc@V?$allocator@PEAVErrorInfo@Reader@Json@@@std@@@0@U_Really_trivial_ptr_iterator_tag@0@U?$integral_constant@_N$00@0@@Z DD 040a01H
	DD	06340aH
	DD	07006320aH
xdata	ENDS
;	COMDAT xdata
xdata	SEGMENT
$unwind$??$_Uninitialized_copy_al_unchecked1@PEAPEAVValue@Json@@PEAPEAV12@V?$allocator@PEAPEAVValue@Json@@@std@@@std@@YAPEAPEAPEAVValue@Json@@PEAPEAPEAV12@00AEAU?$_Wrap_alloc@V?$allocator@PEAPEAVValue@Json@@@std@@@0@U_Really_trivial_ptr_iterator_tag@0@U?$integral_constant@_N$00@0@@Z DD 040a01H
	DD	06340aH
	DD	07006320aH
xdata	ENDS
;	COMDAT xdata
xdata	SEGMENT
$unwind$??0ErrorInfo@Reader@Json@@QEAA@AEBV012@@Z DD 040a01H
	DD	06340aH
	DD	07006320aH
xdata	ENDS
;	COMDAT xdata
xdata	SEGMENT
$unwind$??$_Copy_memmove@PEAPEAVErrorInfo@Reader@Json@@PEAPEAV123@@std@@YAPEAPEAVErrorInfo@Reader@Json@@PEAPEAV123@00@Z DD 040a01H
	DD	06340aH
	DD	07006320aH
xdata	ENDS
;	COMDAT xdata
xdata	SEGMENT
$unwind$??$_Copy_memmove@PEAPEAPEAVValue@Json@@PEAPEAPEAV12@@std@@YAPEAPEAPEAVValue@Json@@PEAPEAPEAV12@00@Z DD 040a01H
	DD	06340aH
	DD	07006320aH
; Function compile flags: /Ogtpy
; File c:\users\admin\desktop\jsoncpp-src-0.5.0\src\lib_json\json_reader.cpp
; File c:\program files (x86)\microsoft visual studio 14.0\vc\include\xstring
; File c:\program files (x86)\microsoft visual studio 14.0\vc\include\xstddef
; File c:\program files (x86)\microsoft visual studio 14.0\vc\include\xstring
; File c:\users\admin\desktop\jsoncpp-src-0.5.0\src\lib_json\json_value.cpp
; File c:\program files (x86)\microsoft visual studio 14.0\vc\include\xstring
; File c:\users\admin\desktop\jsoncpp-src-0.5.0\src\lib_json\json_reader.cpp
; File c:\users\admin\desktop\jsoncpp-src-0.5.0\src\lib_json\json_value.cpp
; File c:\users\admin\desktop\jsoncpp-src-0.5.0\src\lib_json\json_reader.cpp
; File c:\users\admin\desktop\jsoncpp-src-0.5.0\src\lib_json\json_value.cpp
; File c:\users\admin\desktop\jsoncpp-src-0.5.0\src\lib_json\json_reader.cpp
; File c:\users\admin\desktop\jsoncpp-src-0.5.0\src\lib_json\json_value.cpp
; File c:\users\admin\desktop\jsoncpp-src-0.5.0\src\lib_json\json_reader.cpp
; File c:\program files (x86)\microsoft visual studio 14.0\vc\include\xstring
; File c:\program files (x86)\microsoft visual studio 14.0\vc\include\iosfwd
; File c:\program files (x86)\microsoft visual studio 14.0\vc\include\xstring
; File c:\users\admin\desktop\jsoncpp-src-0.5.0\src\lib_json\json_reader.cpp
; File c:\program files (x86)\microsoft visual studio 14.0\vc\include\xstring
; File c:\program files (x86)\microsoft visual studio 14.0\vc\include\xmemory0
; File c:\users\admin\desktop\jsoncpp-src-0.5.0\src\lib_json\json_reader.cpp
;	COMDAT ?readValue@Reader@Json@@AEAA_NXZ
_TEXT	SEGMENT
$T11 = 32
$T10 = 32
$T9 = 32
token$ = 32
$T74 = 56
$T20 = 64
__$ArrayPad$ = 96
this$ = 144
?readValue@Reader@Json@@AEAA_NXZ PROC			; Json::Reader::readValue, COMDAT

$LN369:
	mov	rax, rsp
	push	rbp
	push	rdi
	push	r14
	mov	rbp, rsp
	sub	rsp, 112				; 00000070H
	mov	QWORD PTR $T74[rbp-112], -2
	mov	QWORD PTR [rax+16], rbx
	mov	QWORD PTR [rax+24], rsi
	mov	rax, QWORD PTR __security_cookie
	xor	rax, rsp
	mov	QWORD PTR __$ArrayPad$[rbp-112], rax
	mov	rbx, rcx

	cmp	BYTE PTR [rcx+184], 0
	je	SHORT $LN23@readValue
	npad	8
$LL22@readValue:

	lea	rdx, QWORD PTR token$[rbp-112]
	mov	rcx, rbx
	call	?readToken@Reader@Json@@AEAA_NAEAVToken@12@@Z ; Json::Reader::readToken

	mov	edi, DWORD PTR token$[rbp-112]
	cmp	edi, 12
	je	SHORT $LL22@readValue

	jmp	SHORT $LN24@readValue
$LN23@readValue:

	lea	rdx, QWORD PTR token$[rbp-112]
	call	?readToken@Reader@Json@@AEAA_NAEAVToken@12@@Z ; Json::Reader::readToken
	mov	edi, DWORD PTR token$[rbp-112]
$LN24@readValue:

	mov	sil, 1

	cmp	BYTE PTR [rbx+186], 0
	je	SHORT $LN4@readValue
	cmp	QWORD PTR [rbx+168], 0
	je	SHORT $LN4@readValue

	mov	rcx, rbx
	call	?currentValue@Reader@Json@@AEAAAEAVValue@2@XZ ; Json::Reader::currentValue
; File c:\program files (x86)\microsoft visual studio 14.0\vc\include\xstring

; 521  : 		return (this->_BUF_SIZE <= _Myres

	cmp	QWORD PTR [rbx+176], 16
	jb	SHORT $LN53@readValue
; File c:\program files (x86)\microsoft visual studio 14.0\vc\include\xstddef

; 740  : 	return (_Ptr);

	mov	rdx, QWORD PTR [rbx+152]
; File c:\program files (x86)\microsoft visual studio 14.0\vc\include\xstring

; 521  : 		return (this->_BUF_SIZE <= _Myres

	jmp	SHORT $LN54@readValue
$LN53@readValue:
	lea	rdx, QWORD PTR [rbx+152]
$LN54@readValue:
; File c:\users\admin\desktop\jsoncpp-src-0.5.0\src\lib_json\json_value.cpp

	xor	r8d, r8d
	mov	rcx, rax
	call	?setComment@Value@Json@@QEAAXPEBDW4CommentPlacement@2@@Z ; Json::Value::setComment
; File c:\program files (x86)\microsoft visual studio 14.0\vc\include\xstring

; 1182 : 		return (assign(_Ptr, _Traits::length(_Ptr)));

	xor	r8d, r8d
	lea	rdx, OFFSET FLAT:??_C@_00CNPNBAHC@?$AA@
	lea	rcx, QWORD PTR [rbx+152]
	call	?assign@?$basic_string@DU?$char_traits@D@std@@V?$allocator@D@2@@std@@QEAAAEAV12@PEBD_K@Z ; std::basic_string<char,std::char_traits<char>,std::allocator<char> >::assign
$LN4@readValue:
; File c:\users\admin\desktop\jsoncpp-src-0.5.0\src\lib_json\json_reader.cpp

	dec	edi
	cmp	edi, 8
	ja	$LN12@readValue
	movsxd	rax, edi
	lea	rdx, OFFSET FLAT:__ImageBase
	mov	ecx, DWORD PTR $LN366@readValue[rdx+rax*4]
	add	rcx, rdx
	jmp	rcx
$LN5@readValue:

	mov	rcx, rbx
	call	?readObject@Reader@Json@@AEAA_NAEAVToken@12@@Z ; Json::Reader::readObject
	movzx	esi, al

	jmp	$LN2@readValue
$LN6@readValue:

	mov	rcx, rbx
	call	?readArray@Reader@Json@@AEAA_NAEAVToken@12@@Z ; Json::Reader::readArray
	movzx	esi, al

	jmp	$LN2@readValue
$LN7@readValue:

	lea	rdx, QWORD PTR token$[rbp-112]
	mov	rcx, rbx
	call	?decodeNumber@Reader@Json@@AEAA_NAEAVToken@12@@Z ; Json::Reader::decodeNumber
	movzx	esi, al

	jmp	$LN2@readValue
$LN8@readValue:

	lea	rdx, QWORD PTR token$[rbp-112]
	mov	rcx, rbx
	call	?decodeString@Reader@Json@@AEAA_NAEAVToken@12@@Z ; Json::Reader::decodeString
	movzx	esi, al

	jmp	$LN2@readValue
$LN9@readValue:
; File c:\users\admin\desktop\jsoncpp-src-0.5.0\src\lib_json\json_value.cpp

	mov	eax, DWORD PTR $T9[rbp-104]
	and	eax, -251				; ffffffffffffff05H
	or	eax, 5
	mov	DWORD PTR $T9[rbp-104], eax

	mov	QWORD PTR $T9[rbp-96], 0

	mov	BYTE PTR $T9[rbp-112], 1
; File c:\users\admin\desktop\jsoncpp-src-0.5.0\src\lib_json\json_reader.cpp

	mov	rcx, rbx
	call	?currentValue@Reader@Json@@AEAAAEAVValue@2@XZ ; Json::Reader::currentValue
	mov	rcx, rax
	lea	rdx, QWORD PTR $T9[rbp-112]
	call	??4Value@Json@@QEAAAEAV01@AEBV01@@Z	; Json::Value::operator=
	npad	1

	jmp	SHORT $LN368@readValue
$LN10@readValue:
; File c:\users\admin\desktop\jsoncpp-src-0.5.0\src\lib_json\json_value.cpp

	mov	eax, DWORD PTR $T10[rbp-104]
	and	eax, -251				; ffffffffffffff05H
	or	eax, 5
	mov	DWORD PTR $T10[rbp-104], eax

	mov	QWORD PTR $T10[rbp-96], 0

	mov	BYTE PTR $T10[rbp-112], 0
; File c:\users\admin\desktop\jsoncpp-src-0.5.0\src\lib_json\json_reader.cpp

	mov	rcx, rbx
	call	?currentValue@Reader@Json@@AEAAAEAVValue@2@XZ ; Json::Reader::currentValue
	mov	rcx, rax
	lea	rdx, QWORD PTR $T10[rbp-112]
	call	??4Value@Json@@QEAAAEAV01@AEBV01@@Z	; Json::Value::operator=
	npad	1

	jmp	SHORT $LN368@readValue
$LN11@readValue:
; File c:\users\admin\desktop\jsoncpp-src-0.5.0\src\lib_json\json_value.cpp

	and	DWORD PTR $T11[rbp-104], -512		; fffffffffffffe00H

	mov	QWORD PTR $T11[rbp-96], 0
; File c:\users\admin\desktop\jsoncpp-src-0.5.0\src\lib_json\json_reader.cpp

	mov	rcx, rbx
	call	?currentValue@Reader@Json@@AEAAAEAVValue@2@XZ ; Json::Reader::currentValue
	mov	rcx, rax
	lea	rdx, QWORD PTR $T11[rbp-112]
	call	??4Value@Json@@QEAAAEAV01@AEBV01@@Z	; Json::Value::operator=
	npad	1
$LN368@readValue:
	lea	rcx, QWORD PTR $T11[rbp-112]
	call	??1Value@Json@@QEAA@XZ			; Json::Value::~Value
$LN2@readValue:

	cmp	BYTE PTR [rbx+186], 0
	je	SHORT $LN13@readValue

	mov	rax, QWORD PTR [rbx+128]
	mov	QWORD PTR [rbx+136], rax

	mov	rcx, rbx
	call	?currentValue@Reader@Json@@AEAAAEAVValue@2@XZ ; Json::Reader::currentValue
	mov	QWORD PTR [rbx+144], rax
$LN13@readValue:

	movzx	eax, sil
	jmp	$LN1@readValue
$LN12@readValue:
; File c:\program files (x86)\microsoft visual studio 14.0\vc\include\xstring

; 2260 : 		this->_Myres() = this->_BUF_SIZE - 1;

	mov	QWORD PTR $T20[rbp-88], 15

; 2219 : 		_Traits::assign(_Dx._Myptr()[_Dx._Mysize = _Newsize], _Elem());

	mov	QWORD PTR $T20[rbp-96], 0
; File c:\program files (x86)\microsoft visual studio 14.0\vc\include\iosfwd

; 565  : 		_Left = _Right;

	mov	BYTE PTR $T20[rbp-112], 0
; File c:\program files (x86)\microsoft visual studio 14.0\vc\include\xstring

; 1182 : 		return (assign(_Ptr, _Traits::length(_Ptr)));

	mov	r8d, 46					; 0000002eH
	lea	rdx, OFFSET FLAT:??_C@_0CP@GDDNKEK@Syntax?5error?3?5value?0?5object?5or?5a@
	lea	rcx, QWORD PTR $T20[rbp-112]
	call	?assign@?$basic_string@DU?$char_traits@D@std@@V?$allocator@D@2@@std@@QEAAAEAV12@PEBD_K@Z ; std::basic_string<char,std::char_traits<char>,std::allocator<char> >::assign
	npad	1
; File c:\users\admin\desktop\jsoncpp-src-0.5.0\src\lib_json\json_reader.cpp

	xor	r9d, r9d
	lea	r8, QWORD PTR token$[rbp-112]
	lea	rdx, QWORD PTR $T20[rbp-112]
	mov	rcx, rbx
	call	?addError@Reader@Json@@AEAA_NAEBV?$basic_string@DU?$char_traits@D@std@@V?$allocator@D@2@@std@@AEAVToken@12@PEBD@Z ; Json::Reader::addError
	movzx	ebx, al
; File c:\program files (x86)\microsoft visual studio 14.0\vc\include\xstring

; 2251 : 		else if (this->_BUF_SIZE <= this->_Myres())

	mov	rcx, QWORD PTR $T20[rbp-88]
	cmp	rcx, 16
	jb	SHORT $LN332@readValue

; 2252 : 			{	// copy any leftovers to small buffer and deallocate
; 2253 : 			pointer _Ptr = this->_Bx()._Ptr;
; 2254 : 			this->_Getal().destroy(_STD addressof(this->_Bx()._Ptr));
; 2255 : 			if (0 < _Newsize)
; 2256 : 				_Traits::copy(this->_Bx()._Buf,
; 2257 : 					_Unfancy(_Ptr), _Newsize);
; 2258 : 			this->_Getal().deallocate(_Ptr, this->_Myres() + 1);

	inc	rcx
; File c:\program files (x86)\microsoft visual studio 14.0\vc\include\xmemory0

; 720  : 		_Deallocate(_Ptr, _Count, sizeof (_Ty));

	mov	rdx, QWORD PTR $T20[rbp-112]

; 96   : 	if (_BIG_ALLOCATION_THRESHOLD <= _User_size)

	cmp	rcx, 4096				; 00001000H
	jb	SHORT $LN327@readValue

; 97   : 		{	// deallocate large block
; 98   : 		const uintptr_t _Ptr_user = reinterpret_cast<uintptr_t>(_Ptr);
; 99   : 		_SCL_SECURE_ALWAYS_VALIDATE(

	test	dl, 31
	je	SHORT $LN328@readValue
	call	_invalid_parameter_noinfo_noreturn
	int	3
$LN328@readValue:

; 100  : 			(_Ptr_user & (_BIG_ALLOCATION_ALIGNMENT - 1)) == 0);
; 101  : 		const uintptr_t _Ptr_ptr = _Ptr_user - sizeof(void *);
; 102  : 		const uintptr_t _Ptr_container =
; 103  : 			*reinterpret_cast<uintptr_t *>(_Ptr_ptr);

	mov	rax, QWORD PTR [rdx-8]

; 104  : 
; 105  :  #ifdef _DEBUG
; 106  : 		// If the following asserts, it likely means that we are performing
; 107  : 		// an aligned delete on memory coming from an unaligned allocation.
; 108  : 		_SCL_SECURE_ALWAYS_VALIDATE(
; 109  : 			reinterpret_cast<uintptr_t *>(_Ptr_ptr)[-1] ==
; 110  : 				_BIG_ALLOCATION_SENTINEL);
; 111  :  #endif /* _DEBUG */
; 112  : 
; 113  : 		// Extra paranoia on aligned allocation/deallocation
; 114  : 		_SCL_SECURE_ALWAYS_VALIDATE(_Ptr_container < _Ptr_user);

	cmp	rax, rdx
	jb	SHORT $LN329@readValue
	call	_invalid_parameter_noinfo_noreturn
	int	3
$LN329@readValue:

; 115  : 
; 116  :  #ifdef _DEBUG
; 117  : 		_SCL_SECURE_ALWAYS_VALIDATE(2 * sizeof(void *)
; 118  : 			<= _Ptr_user - _Ptr_container);
; 119  : 
; 120  :  #else /* _DEBUG */
; 121  : 		_SCL_SECURE_ALWAYS_VALIDATE(sizeof(void *)

	sub	rdx, rax
	cmp	rdx, 8
	jae	SHORT $LN330@readValue
	call	_invalid_parameter_noinfo_noreturn
	int	3
$LN330@readValue:

; 122  : 			<= _Ptr_user - _Ptr_container);
; 123  :  #endif /* _DEBUG */
; 124  : 
; 125  : 		_SCL_SECURE_ALWAYS_VALIDATE(_Ptr_user - _Ptr_container

	cmp	rdx, 39					; 00000027H
	jbe	SHORT $LN331@readValue
	call	_invalid_parameter_noinfo_noreturn
	int	3
$LN331@readValue:

; 126  : 			<= _NON_USER_SIZE);
; 127  : 
; 128  : 		_Ptr = reinterpret_cast<void *>(_Ptr_container);

	mov	rdx, rax
$LN327@readValue:

; 129  : 		}
; 130  :  #endif /* defined(_M_IX86) || defined(_M_X64) */
; 131  : 
; 132  : 	::operator delete(_Ptr);

	mov	rcx, rdx
	call	??3@YAXPEAX@Z				; operator delete
$LN332@readValue:
; File c:\users\admin\desktop\jsoncpp-src-0.5.0\src\lib_json\json_reader.cpp

	movzx	eax, bl
$LN1@readValue:

	mov	rcx, QWORD PTR __$ArrayPad$[rbp-112]
	xor	rcx, rsp
	call	__security_check_cookie
	lea	r11, QWORD PTR [rsp+112]
	mov	rbx, QWORD PTR [r11+40]
	mov	rsi, QWORD PTR [r11+48]
	mov	rsp, r11
	pop	r14
	pop	rdi
	pop	rbp
	ret	0
$LN367@readValue:
	npad	3
$LN366@readValue:
	DD	$LN5@readValue
	DD	$LN12@readValue
	DD	$LN6@readValue
	DD	$LN12@readValue
	DD	$LN8@readValue
	DD	$LN7@readValue
	DD	$LN9@readValue
	DD	$LN10@readValue
	DD	$LN11@readValue
?readValue@Reader@Json@@AEAA_NXZ ENDP			; Json::Reader::readValue
_TEXT	ENDS
;	COMDAT text$x
text$x	SEGMENT
$T11 = 32
$T10 = 32
$T9 = 32
token$ = 32
$T74 = 56
$T20 = 64
__$ArrayPad$ = 96
this$ = 144
?dtor$0@?0??readValue@Reader@Json@@AEAA_NXZ@4HA PROC	; `Json::Reader::readValue'::`1'::dtor$0
	lea	rcx, QWORD PTR $T9[rdx]
	jmp	??1Value@Json@@QEAA@XZ			; Json::Value::~Value
?dtor$0@?0??readValue@Reader@Json@@AEAA_NXZ@4HA ENDP	; `Json::Reader::readValue'::`1'::dtor$0
$T11 = 32
$T10 = 32
$T9 = 32
token$ = 32
$T74 = 56
$T20 = 64
__$ArrayPad$ = 96
this$ = 144
?dtor$1@?0??readValue@Reader@Json@@AEAA_NXZ@4HA PROC	; `Json::Reader::readValue'::`1'::dtor$1
	lea	rcx, QWORD PTR $T10[rdx]
	jmp	??1Value@Json@@QEAA@XZ			; Json::Value::~Value
?dtor$1@?0??readValue@Reader@Json@@AEAA_NXZ@4HA ENDP	; `Json::Reader::readValue'::`1'::dtor$1
$T11 = 32
$T10 = 32
$T9 = 32
token$ = 32
$T74 = 56
$T20 = 64
__$ArrayPad$ = 96
this$ = 144
?dtor$2@?0??readValue@Reader@Json@@AEAA_NXZ@4HA PROC	; `Json::Reader::readValue'::`1'::dtor$2
	lea	rcx, QWORD PTR $T11[rdx]
	jmp	??1Value@Json@@QEAA@XZ			; Json::Value::~Value
?dtor$2@?0??readValue@Reader@Json@@AEAA_NXZ@4HA ENDP	; `Json::Reader::readValue'::`1'::dtor$2
$T11 = 32
$T10 = 32
$T9 = 32
token$ = 32
$T74 = 56
$T20 = 64
__$ArrayPad$ = 96
this$ = 144
?dtor$3@?0??readValue@Reader@Json@@AEAA_NXZ@4HA PROC	; `Json::Reader::readValue'::`1'::dtor$3
	lea	rcx, QWORD PTR $T20[rdx]
	jmp	??1?$basic_string@DU?$char_traits@D@std@@V?$allocator@D@2@@std@@QEAA@XZ ; std::basic_string<char,std::char_traits<char>,std::allocator<char> >::~basic_string<char,std::char_traits<char>,std::allocator<char> >
?dtor$3@?0??readValue@Reader@Json@@AEAA_NXZ@4HA ENDP	; `Json::Reader::readValue'::`1'::dtor$3
text$x	ENDS
; Function compile flags: /Ogtpy
;	COMDAT text$x
text$x	SEGMENT
$T11 = 32
$T10 = 32
$T9 = 32
token$ = 32
$T74 = 56
$T20 = 64
__$ArrayPad$ = 96
this$ = 144
?dtor$0@?0??readValue@Reader@Json@@AEAA_NXZ@4HA PROC	; `Json::Reader::readValue'::`1'::dtor$0
	lea	rcx, QWORD PTR $T9[rdx]
	jmp	??1Value@Json@@QEAA@XZ			; Json::Value::~Value
?dtor$0@?0??readValue@Reader@Json@@AEAA_NXZ@4HA ENDP	; `Json::Reader::readValue'::`1'::dtor$0
text$x	ENDS
; Function compile flags: /Ogtpy
;	COMDAT text$x
text$x	SEGMENT
$T11 = 32
$T10 = 32
$T9 = 32
token$ = 32
$T74 = 56
$T20 = 64
__$ArrayPad$ = 96
this$ = 144
?dtor$1@?0??readValue@Reader@Json@@AEAA_NXZ@4HA PROC	; `Json::Reader::readValue'::`1'::dtor$1
	lea	rcx, QWORD PTR $T10[rdx]
	jmp	??1Value@Json@@QEAA@XZ			; Json::Value::~Value
?dtor$1@?0??readValue@Reader@Json@@AEAA_NXZ@4HA ENDP	; `Json::Reader::readValue'::`1'::dtor$1
text$x	ENDS
; Function compile flags: /Ogtpy
;	COMDAT text$x
text$x	SEGMENT
$T11 = 32
$T10 = 32
$T9 = 32
token$ = 32
$T74 = 56
$T20 = 64
__$ArrayPad$ = 96
this$ = 144
?dtor$2@?0??readValue@Reader@Json@@AEAA_NXZ@4HA PROC	; `Json::Reader::readValue'::`1'::dtor$2
	lea	rcx, QWORD PTR $T11[rdx]
	jmp	??1Value@Json@@QEAA@XZ			; Json::Value::~Value
?dtor$2@?0??readValue@Reader@Json@@AEAA_NXZ@4HA ENDP	; `Json::Reader::readValue'::`1'::dtor$2
text$x	ENDS
; Function compile flags: /Ogtpy
;	COMDAT text$x
text$x	SEGMENT
$T11 = 32
$T10 = 32
$T9 = 32
token$ = 32
$T74 = 56
$T20 = 64
__$ArrayPad$ = 96
this$ = 144
?dtor$3@?0??readValue@Reader@Json@@AEAA_NXZ@4HA PROC	; `Json::Reader::readValue'::`1'::dtor$3
	lea	rcx, QWORD PTR $T20[rdx]
	jmp	??1?$basic_string@DU?$char_traits@D@std@@V?$allocator@D@2@@std@@QEAA@XZ ; std::basic_string<char,std::char_traits<char>,std::allocator<char> >::~basic_string<char,std::char_traits<char>,std::allocator<char> >
?dtor$3@?0??readValue@Reader@Json@@AEAA_NXZ@4HA ENDP	; `Json::Reader::readValue'::`1'::dtor$3
text$x	ENDS
; Function compile flags: /Ogtpy
; File c:\users\admin\desktop\jsoncpp-src-0.5.0\src\lib_json\json_reader.cpp
; File c:\program files (x86)\microsoft visual studio 14.0\vc\include\xstring
; File c:\program files (x86)\microsoft visual studio 14.0\vc\include\iosfwd
; File c:\users\admin\desktop\jsoncpp-src-0.5.0\src\lib_json\json_value.cpp
; File c:\program files (x86)\microsoft visual studio 14.0\vc\include\xtree
; File c:\users\admin\desktop\jsoncpp-src-0.5.0\src\lib_json\json_value.cpp
; File c:\program files (x86)\microsoft visual studio 14.0\vc\include\deque
; File c:\program files (x86)\microsoft visual studio 14.0\vc\include\xutility
; File c:\program files (x86)\microsoft visual studio 14.0\vc\include\deque
; File c:\users\admin\desktop\jsoncpp-src-0.5.0\src\lib_json\json_reader.cpp
; File c:\program files (x86)\microsoft visual studio 14.0\vc\include\xstring
; File c:\users\admin\desktop\jsoncpp-src-0.5.0\src\lib_json\json_reader.cpp
; File c:\program files (x86)\microsoft visual studio 14.0\vc\include\xstring
; File c:\users\admin\desktop\jsoncpp-src-0.5.0\src\lib_json\json_value.cpp
; File c:\program files (x86)\microsoft visual studio 14.0\vc\include\stack
; File c:\users\admin\desktop\jsoncpp-src-0.5.0\src\lib_json\json_reader.cpp
; File c:\program files (x86)\microsoft visual studio 14.0\vc\include\deque
; File c:\users\admin\desktop\jsoncpp-src-0.5.0\src\lib_json\json_reader.cpp
; File c:\program files (x86)\microsoft visual studio 14.0\vc\include\xstring
; File c:\program files (x86)\microsoft visual studio 14.0\vc\include\iosfwd
; File c:\program files (x86)\microsoft visual studio 14.0\vc\include\xstring
; File c:\users\admin\desktop\jsoncpp-src-0.5.0\src\lib_json\json_reader.cpp
; File c:\program files (x86)\microsoft visual studio 14.0\vc\include\deque
; File c:\users\admin\desktop\jsoncpp-src-0.5.0\src\lib_json\json_reader.cpp
; File c:\program files (x86)\microsoft visual studio 14.0\vc\include\xstring
; File c:\program files (x86)\microsoft visual studio 14.0\vc\include\xmemory0
; File c:\program files (x86)\microsoft visual studio 14.0\vc\include\xstring
; File c:\users\admin\desktop\jsoncpp-src-0.5.0\src\lib_json\json_reader.cpp
; File c:\program files (x86)\microsoft visual studio 14.0\vc\include\xstring
; File c:\program files (x86)\microsoft visual studio 14.0\vc\include\iosfwd
; File c:\program files (x86)\microsoft visual studio 14.0\vc\include\xstring
; File c:\users\admin\desktop\jsoncpp-src-0.5.0\src\lib_json\json_reader.cpp
; File c:\program files (x86)\microsoft visual studio 14.0\vc\include\deque
; File c:\users\admin\desktop\jsoncpp-src-0.5.0\src\lib_json\json_reader.cpp
; File c:\program files (x86)\microsoft visual studio 14.0\vc\include\xstring
; File c:\program files (x86)\microsoft visual studio 14.0\vc\include\xmemory0
; File c:\users\admin\desktop\jsoncpp-src-0.5.0\src\lib_json\json_reader.cpp
; File c:\program files (x86)\microsoft visual studio 14.0\vc\include\xstring
; File c:\program files (x86)\microsoft visual studio 14.0\vc\include\iosfwd
; File c:\program files (x86)\microsoft visual studio 14.0\vc\include\xstring
; File c:\users\admin\desktop\jsoncpp-src-0.5.0\src\lib_json\json_reader.cpp
; File c:\program files (x86)\microsoft visual studio 14.0\vc\include\deque
; File c:\users\admin\desktop\jsoncpp-src-0.5.0\src\lib_json\json_reader.cpp
; File c:\program files (x86)\microsoft visual studio 14.0\vc\include\xstring
; File c:\program files (x86)\microsoft visual studio 14.0\vc\include\xmemory0
; File c:\program files (x86)\microsoft visual studio 14.0\vc\include\xstring
; File c:\program files (x86)\microsoft visual studio 14.0\vc\include\iosfwd
; File c:\program files (x86)\microsoft visual studio 14.0\vc\include\xstring
; File c:\program files (x86)\microsoft visual studio 14.0\vc\include\xmemory0
; File c:\users\admin\desktop\jsoncpp-src-0.5.0\src\lib_json\json_reader.cpp
;	COMDAT ?readObject@Reader@Json@@AEAA_NAEAVToken@12@@Z
_TEXT	SEGMENT
skip$274 = 32
skip$275 = 32
skip$276 = 32
$T38 = 32
colon$277 = 32
$T29 = 56
$T110 = 56
$T278 = 64
$T37 = 72
$T191 = 72
comma$279 = 72
$T48 = 72
$T132 = 104
tokenName$ = 104
$T28 = 104
name$ = 136
__$ArrayPad$ = 168
this$ = 192
tokenStart$dead$ = 200
?readObject@Reader@Json@@AEAA_NAEAVToken@12@@Z PROC	; Json::Reader::readObject, COMDAT

$LN1286:
	mov	rax, rsp
	push	rbp
	lea	rbp, QWORD PTR [rax-95]
	sub	rsp, 176				; 000000b0H
	mov	QWORD PTR $T278[rbp-89], -2
	mov	QWORD PTR [rax+16], rbx
	mov	QWORD PTR [rax+24], rsi
	mov	QWORD PTR [rax+32], rdi
	mov	rax, QWORD PTR __security_cookie
	xor	rax, rsp
	mov	QWORD PTR __$ArrayPad$[rbp-89], rax
	mov	rdi, rcx
; File c:\program files (x86)\microsoft visual studio 14.0\vc\include\xstring

; 2260 : 		this->_Myres() = this->_BUF_SIZE - 1;

	mov	QWORD PTR name$[rbp-65], 15

; 2219 : 		_Traits::assign(_Dx._Myptr()[_Dx._Mysize = _Newsize], _Elem());

	xor	esi, esi
	mov	QWORD PTR name$[rbp-73], rsi
; File c:\program files (x86)\microsoft visual studio 14.0\vc\include\iosfwd

; 565  : 		_Left = _Right;

	mov	BYTE PTR name$[rbp-89], sil
	mov	eax, DWORD PTR $T28[rbp-81]
	and	eax, -505				; fffffffffffffe07H
; File c:\users\admin\desktop\jsoncpp-src-0.5.0\src\lib_json\json_value.cpp

	or	eax, 7
	mov	DWORD PTR $T28[rbp-81], eax

	mov	QWORD PTR $T28[rbp-73], rsi

	lea	ecx, QWORD PTR [rsi+16]
	call	??2@YAPEAX_K@Z				; operator new
	mov	rbx, rax
	mov	QWORD PTR $T29[rbp-89], rax
; File c:\program files (x86)\microsoft visual studio 14.0\vc\include\xtree

; 567  : 		: _Myhead(),

	mov	QWORD PTR [rax], rsi

; 568  : 		_Mysize(0)

	mov	QWORD PTR [rax+8], rsi

; 721  : 		_Myhead() = _Buyheadnode();

	call	?_Buyheadnode@?$_Tree_comp_alloc@V?$_Tmap_traits@VCZString@Value@Json@@V23@U?$less@VCZString@Value@Json@@@std@@V?$allocator@U?$pair@$$CBVCZString@Value@Json@@V23@@std@@@5@$0A@@std@@@std@@QEAAPEAU?$_Tree_node@U?$pair@$$CBVCZString@Value@Json@@V23@@std@@PEAX@2@XZ ; std::_Tree_comp_alloc<std::_Tmap_traits<Json::Value::CZString,Json::Value,std::less<Json::Value::CZString>,std::allocator<std::pair<Json::Value::CZString const ,Json::Value> >,0> >::_Buyheadnode
	mov	QWORD PTR [rbx], rax
; File c:\users\admin\desktop\jsoncpp-src-0.5.0\src\lib_json\json_value.cpp

	mov	QWORD PTR $T28[rbp-89], rbx
; File c:\program files (x86)\microsoft visual studio 14.0\vc\include\deque

; 1448 : 		return (*(end() - 1));

	lea	rdx, QWORD PTR $T38[rbp-89]
	mov	rcx, rdi
	call	?end@?$deque@PEAVValue@Json@@V?$allocator@PEAVValue@Json@@@std@@@std@@QEAA?AV?$_Deque_iterator@V?$_Deque_val@U?$_Deque_simple_types@PEAVValue@Json@@@std@@@std@@@2@XZ ; std::deque<Json::Value * __ptr64,std::allocator<Json::Value * __ptr64> >::end
	mov	rcx, rax
	lea	rdx, QWORD PTR $T37[rbp-89]
	call	??G?$_Deque_iterator@V?$_Deque_val@U?$_Deque_simple_types@PEAVValue@Json@@@std@@@std@@@std@@QEBA?AV01@_J@Z ; std::_Deque_iterator<std::_Deque_val<std::_Deque_simple_types<Json::Value * __ptr64> > >::operator-
; File c:\program files (x86)\microsoft visual studio 14.0\vc\include\xutility

; 184  : 		return (_Myproxy == 0 ? 0 : _Myproxy->_Mycont);

	mov	rdx, QWORD PTR [rax]
	test	rdx, rdx
	jne	SHORT $LN214@readObject
	mov	edx, esi
	jmp	SHORT $LN215@readObject
$LN214@readObject:
	mov	rdx, QWORD PTR [rdx]
$LN215@readObject:
; File c:\program files (x86)\microsoft visual studio 14.0\vc\include\deque

; 769  : 		return ((_Off / _DEQUESIZ) & (_Mapsize - 1));

	mov	r8, QWORD PTR [rax+16]
	mov	rcx, QWORD PTR [rdx+16]
	dec	rcx
	mov	rax, r8
	shr	rax, 1
	and	rcx, rax

; 342  : 		size_type _Off = _Myoff % _DEQUESIZ;

	and	r8d, 1

; 343  : 		return (_Mycont->_Map[_Block][_Off]);

	mov	rax, QWORD PTR [rdx+8]
	mov	rcx, QWORD PTR [rax+rcx*8]
; File c:\users\admin\desktop\jsoncpp-src-0.5.0\src\lib_json\json_reader.cpp

	lea	rdx, QWORD PTR $T28[rbp-89]
	mov	rcx, QWORD PTR [rcx+r8*8]
	call	??4Value@Json@@QEAAAEAV01@AEBV01@@Z	; Json::Value::operator=
	npad	1
	lea	rcx, QWORD PTR $T28[rbp-89]
	call	??1Value@Json@@QEAA@XZ			; Json::Value::~Value
$LN1285@readObject:

	lea	rdx, QWORD PTR tokenName$[rbp-89]
	mov	rcx, rdi
	call	?readToken@Reader@Json@@AEAA_NAEAVToken@12@@Z ; Json::Reader::readToken
	test	al, al
	je	$LN3@readObject

	mov	cl, 1

	mov	eax, DWORD PTR tokenName$[rbp-89]
	cmp	eax, 12
	jne	SHORT $LN1278@readObject
$LL4@readObject:
	test	cl, cl
	je	$LN3@readObject

	lea	rdx, QWORD PTR tokenName$[rbp-89]
	mov	rcx, rdi
	call	?readToken@Reader@Json@@AEAA_NAEAVToken@12@@Z ; Json::Reader::readToken
	movzx	ecx, al

	mov	eax, DWORD PTR tokenName$[rbp-89]
	cmp	eax, 12
	je	SHORT $LL4@readObject

	test	cl, cl
	je	$LN3@readObject
$LN1278@readObject:

	cmp	eax, 2
	je	$LN1279@readObject

	cmp	eax, 5
	jne	$LN3@readObject
; File c:\program files (x86)\microsoft visual studio 14.0\vc\include\xstring

; 1182 : 		return (assign(_Ptr, _Traits::length(_Ptr)));

	xor	r8d, r8d
	lea	rdx, OFFSET FLAT:??_C@_00CNPNBAHC@?$AA@
	lea	rcx, QWORD PTR name$[rbp-89]
	call	?assign@?$basic_string@DU?$char_traits@D@std@@V?$allocator@D@2@@std@@QEAAAEAV12@PEBD_K@Z ; std::basic_string<char,std::char_traits<char>,std::allocator<char> >::assign
; File c:\users\admin\desktop\jsoncpp-src-0.5.0\src\lib_json\json_reader.cpp

	lea	r8, QWORD PTR name$[rbp-89]
	lea	rdx, QWORD PTR tokenName$[rbp-89]
	mov	rcx, rdi
	call	?decodeString@Reader@Json@@AEAA_NAEAVToken@12@AEAV?$basic_string@DU?$char_traits@D@std@@V?$allocator@D@2@@std@@@Z ; Json::Reader::decodeString

	mov	rcx, rdi

	test	al, al
	je	$LN1258@readObject

	lea	rdx, QWORD PTR colon$277[rbp-89]
	call	?readToken@Reader@Json@@AEAA_NAEAVToken@12@@Z ; Json::Reader::readToken
	test	al, al
	je	$LN13@readObject
	cmp	DWORD PTR colon$277[rbp-89], 11
	jne	$LN13@readObject

	mov	rcx, rdi
	call	?currentValue@Reader@Json@@AEAAAEAVValue@2@XZ ; Json::Reader::currentValue
; File c:\program files (x86)\microsoft visual studio 14.0\vc\include\xstring

; 521  : 		return (this->_BUF_SIZE <= _Myres

	lea	rdx, QWORD PTR name$[rbp-89]
	cmp	QWORD PTR name$[rbp-65], 16
	cmovae	rdx, QWORD PTR name$[rbp-89]
; File c:\users\admin\desktop\jsoncpp-src-0.5.0\src\lib_json\json_value.cpp

	mov	rcx, rax
	call	?resolveReference@Value@Json@@AEAAAEAV12@PEBD_N@Z ; Json::Value::resolveReference
	mov	QWORD PTR $T110[rbp-89], rax
; File c:\program files (x86)\microsoft visual studio 14.0\vc\include\stack

; 108  : 		c.push_back(_STD move(_Val));

	lea	rdx, QWORD PTR $T110[rbp-89]
	mov	rcx, rdi
	call	?push_back@?$deque@PEAVValue@Json@@V?$allocator@PEAVValue@Json@@@std@@@std@@QEAAX$$QEAPEAVValue@Json@@@Z ; std::deque<Json::Value * __ptr64,std::allocator<Json::Value * __ptr64> >::push_back
; File c:\users\admin\desktop\jsoncpp-src-0.5.0\src\lib_json\json_reader.cpp

	mov	rcx, rdi
	call	?readValue@Reader@Json@@AEAA_NXZ	; Json::Reader::readValue
; File c:\program files (x86)\microsoft visual studio 14.0\vc\include\deque

; 1523 : 		if (--this->_Mysize() == 0)

	sub	QWORD PTR [rdi+32], 1
	jne	SHORT $LN533@readObject

; 1524 : 			this->_Myoff() = 0;

	mov	QWORD PTR [rdi+24], rsi
$LN533@readObject:
; File c:\users\admin\desktop\jsoncpp-src-0.5.0\src\lib_json\json_reader.cpp

	mov	rcx, rdi

	test	al, al
	je	$LN1258@readObject

	lea	rdx, QWORD PTR comma$279[rbp-89]
	call	?readToken@Reader@Json@@AEAA_NAEAVToken@12@@Z ; Json::Reader::readToken
	test	al, al
	je	SHORT $LN16@readObject
	mov	ecx, DWORD PTR comma$279[rbp-89]
	lea	eax, DWORD PTR [rcx-2]
	test	eax, -11				; fffffff5H
	jne	SHORT $LN16@readObject
	cmp	ecx, 4
	je	SHORT $LN16@readObject

	mov	al, 1

	cmp	ecx, 12
	jne	SHORT $LN7@readObject
	npad	6
$LL6@readObject:
	test	al, al
	je	SHORT $LN7@readObject

	lea	rdx, QWORD PTR comma$279[rbp-89]
	mov	rcx, rdi
	call	?readToken@Reader@Json@@AEAA_NAEAVToken@12@@Z ; Json::Reader::readToken

	mov	ecx, DWORD PTR comma$279[rbp-89]
	cmp	ecx, 12
	je	SHORT $LL6@readObject
$LN7@readObject:

	cmp	ecx, 2
	jne	$LN1285@readObject

	mov	bl, 1
	jmp	$LN1014@readObject
$LN16@readObject:
; File c:\program files (x86)\microsoft visual studio 14.0\vc\include\xstring

; 2260 : 		this->_Myres() = this->_BUF_SIZE - 1;

	mov	QWORD PTR $T132[rbp-65], 15

; 2219 : 		_Traits::assign(_Dx._Myptr()[_Dx._Mysize = _Newsize], _Elem());

	mov	QWORD PTR $T132[rbp-73], rsi
; File c:\program files (x86)\microsoft visual studio 14.0\vc\include\iosfwd

; 565  : 		_Left = _Right;

	mov	BYTE PTR $T132[rbp-89], 0
; File c:\program files (x86)\microsoft visual studio 14.0\vc\include\xstring

; 1182 : 		return (assign(_Ptr, _Traits::length(_Ptr)));

	mov	r8d, 40					; 00000028H
	lea	rdx, OFFSET FLAT:??_C@_0CJ@NGKOAFKA@Missing?5?8?0?8?5or?5?8?$HN?8?5in?5object?5dec@
	lea	rcx, QWORD PTR $T132[rbp-89]
	call	?assign@?$basic_string@DU?$char_traits@D@std@@V?$allocator@D@2@@std@@QEAAAEAV12@PEBD_K@Z ; std::basic_string<char,std::char_traits<char>,std::allocator<char> >::assign
	npad	1
; File c:\users\admin\desktop\jsoncpp-src-0.5.0\src\lib_json\json_reader.cpp

	xor	r9d, r9d
	lea	r8, QWORD PTR comma$279[rbp-89]
	lea	rdx, QWORD PTR $T132[rbp-89]
	mov	rcx, rdi
	call	?addError@Reader@Json@@AEAA_NAEBV?$basic_string@DU?$char_traits@D@std@@V?$allocator@D@2@@std@@AEAVToken@12@PEBD@Z ; Json::Reader::addError
; File c:\program files (x86)\microsoft visual studio 14.0\vc\include\deque

; 1383 : 		return (this->_Mysize());

	mov	rbx, QWORD PTR [rdi+72]
	npad	10
$LL729@readObject:
; File c:\users\admin\desktop\jsoncpp-src-0.5.0\src\lib_json\json_reader.cpp

	lea	rdx, QWORD PTR skip$275[rbp-89]
	mov	rcx, rdi
	call	?readToken@Reader@Json@@AEAA_NAEAVToken@12@@Z ; Json::Reader::readToken
	test	al, al
	jne	SHORT $LN731@readObject

	movsxd	rdx, ebx
	lea	rcx, QWORD PTR [rdi+40]
	call	?resize@?$deque@VErrorInfo@Reader@Json@@V?$allocator@VErrorInfo@Reader@Json@@@std@@@std@@QEAAX_K@Z ; std::deque<Json::Reader::ErrorInfo,std::allocator<Json::Reader::ErrorInfo> >::resize
$LN731@readObject:

	mov	eax, DWORD PTR skip$275[rbp-89]
	cmp	eax, 2
	je	SHORT $LN1261@readObject
	test	eax, eax
	jne	SHORT $LL729@readObject
$LN1261@readObject:

	movsxd	rdx, ebx
	lea	rcx, QWORD PTR [rdi+40]
	call	?resize@?$deque@VErrorInfo@Reader@Json@@V?$allocator@VErrorInfo@Reader@Json@@@std@@@std@@QEAAX_K@Z ; std::deque<Json::Reader::ErrorInfo,std::allocator<Json::Reader::ErrorInfo> >::resize

	xor	bl, bl
; File c:\program files (x86)\microsoft visual studio 14.0\vc\include\xstring

; 2251 : 		else if (this->_BUF_SIZE <= this->_Myres())

	mov	rax, QWORD PTR $T132[rbp-65]
	cmp	rax, 16
	jb	$LN1014@readObject

; 2252 : 			{	// copy any leftovers to small buffer and deallocate
; 2253 : 			pointer _Ptr = this->_Bx()._Ptr;
; 2254 : 			this->_Getal().destroy(_STD addressof(this->_Bx()._Ptr));
; 2255 : 			if (0 < _Newsize)
; 2256 : 				_Traits::copy(this->_Bx()._Buf,
; 2257 : 					_Unfancy(_Ptr), _Newsize);
; 2258 : 			this->_Getal().deallocate(_Ptr, this->_Myres() + 1);

	inc	rax
; File c:\program files (x86)\microsoft visual studio 14.0\vc\include\xmemory0

; 720  : 		_Deallocate(_Ptr, _Count, sizeof (_Ty));

	mov	rcx, QWORD PTR $T132[rbp-89]

; 96   : 	if (_BIG_ALLOCATION_THRESHOLD <= _User_size)

	cmp	rax, 4096				; 00001000H
	jb	SHORT $LN828@readObject

; 97   : 		{	// deallocate large block
; 98   : 		const uintptr_t _Ptr_user = reinterpret_cast<uintptr_t>(_Ptr);
; 99   : 		_SCL_SECURE_ALWAYS_VALIDATE(

	test	cl, 31
	je	SHORT $LN829@readObject
	call	_invalid_parameter_noinfo_noreturn
	int	3
$LN829@readObject:

; 100  : 			(_Ptr_user & (_BIG_ALLOCATION_ALIGNMENT - 1)) == 0);
; 101  : 		const uintptr_t _Ptr_ptr = _Ptr_user - sizeof(void *);
; 102  : 		const uintptr_t _Ptr_container =
; 103  : 			*reinterpret_cast<uintptr_t *>(_Ptr_ptr);

	mov	rax, QWORD PTR [rcx-8]

; 104  : 
; 105  :  #ifdef _DEBUG
; 106  : 		// If the following asserts, it likely means that we are performing
; 107  : 		// an aligned delete on memory coming from an unaligned allocation.
; 108  : 		_SCL_SECURE_ALWAYS_VALIDATE(
; 109  : 			reinterpret_cast<uintptr_t *>(_Ptr_ptr)[-1] ==
; 110  : 				_BIG_ALLOCATION_SENTINEL);
; 111  :  #endif /* _DEBUG */
; 112  : 
; 113  : 		// Extra paranoia on aligned allocation/deallocation
; 114  : 		_SCL_SECURE_ALWAYS_VALIDATE(_Ptr_container < _Ptr_user);

	cmp	rax, rcx
	jb	SHORT $LN830@readObject
	call	_invalid_parameter_noinfo_noreturn
	int	3
$LN830@readObject:

; 115  : 
; 116  :  #ifdef _DEBUG
; 117  : 		_SCL_SECURE_ALWAYS_VALIDATE(2 * sizeof(void *)
; 118  : 			<= _Ptr_user - _Ptr_container);
; 119  : 
; 120  :  #else /* _DEBUG */
; 121  : 		_SCL_SECURE_ALWAYS_VALIDATE(sizeof(void *)

	sub	rcx, rax
	cmp	rcx, 8
	jae	SHORT $LN831@readObject
	call	_invalid_parameter_noinfo_noreturn
	int	3
$LN831@readObject:

; 122  : 			<= _Ptr_user - _Ptr_container);
; 123  :  #endif /* _DEBUG */
; 124  : 
; 125  : 		_SCL_SECURE_ALWAYS_VALIDATE(_Ptr_user - _Ptr_container

	cmp	rcx, 39					; 00000027H
	jbe	SHORT $LN832@readObject
	call	_invalid_parameter_noinfo_noreturn
	int	3
$LN832@readObject:

; 126  : 			<= _NON_USER_SIZE);
; 127  : 
; 128  : 		_Ptr = reinterpret_cast<void *>(_Ptr_container);

	mov	rcx, rax
$LN828@readObject:

; 129  : 		}
; 130  :  #endif /* defined(_M_IX86) || defined(_M_X64) */
; 131  : 
; 132  : 	::operator delete(_Ptr);

	call	??3@YAXPEAX@Z				; operator delete
; File c:\program files (x86)\microsoft visual studio 14.0\vc\include\xstring

; 1018 : 		}

	jmp	$LN1014@readObject
$LN1258@readObject:
; File c:\users\admin\desktop\jsoncpp-src-0.5.0\src\lib_json\json_reader.cpp

	mov	edx, 2
	call	?recoverFromError@Reader@Json@@AEAA_NW4TokenType@12@@Z ; Json::Reader::recoverFromError
	movzx	ebx, al
	jmp	$LN1014@readObject
$LN13@readObject:
; File c:\program files (x86)\microsoft visual studio 14.0\vc\include\xstring

; 2260 : 		this->_Myres() = this->_BUF_SIZE - 1;

	mov	QWORD PTR $T48[rbp-65], 15

; 2219 : 		_Traits::assign(_Dx._Myptr()[_Dx._Mysize = _Newsize], _Elem());

	mov	QWORD PTR $T48[rbp-73], rsi
; File c:\program files (x86)\microsoft visual studio 14.0\vc\include\iosfwd

; 565  : 		_Left = _Right;

	mov	BYTE PTR $T48[rbp-89], 0
; File c:\program files (x86)\microsoft visual studio 14.0\vc\include\xstring

; 1182 : 		return (assign(_Ptr, _Traits::length(_Ptr)));

	mov	r8d, 36					; 00000024H
	lea	rdx, OFFSET FLAT:??_C@_0CF@GCCDMCPH@Missing?5?8?3?8?5after?5object?5member?5@
	lea	rcx, QWORD PTR $T48[rbp-89]
	call	?assign@?$basic_string@DU?$char_traits@D@std@@V?$allocator@D@2@@std@@QEAAAEAV12@PEBD_K@Z ; std::basic_string<char,std::char_traits<char>,std::allocator<char> >::assign
	npad	1
; File c:\users\admin\desktop\jsoncpp-src-0.5.0\src\lib_json\json_reader.cpp

	xor	r9d, r9d
	lea	r8, QWORD PTR colon$277[rbp-89]
	lea	rdx, QWORD PTR $T48[rbp-89]
	mov	rcx, rdi
	call	?addError@Reader@Json@@AEAA_NAEBV?$basic_string@DU?$char_traits@D@std@@V?$allocator@D@2@@std@@AEAVToken@12@PEBD@Z ; Json::Reader::addError
; File c:\program files (x86)\microsoft visual studio 14.0\vc\include\deque

; 1383 : 		return (this->_Mysize());

	mov	rbx, QWORD PTR [rdi+72]
	npad	11
$LL369@readObject:
; File c:\users\admin\desktop\jsoncpp-src-0.5.0\src\lib_json\json_reader.cpp

	lea	rdx, QWORD PTR skip$276[rbp-89]
	mov	rcx, rdi
	call	?readToken@Reader@Json@@AEAA_NAEAVToken@12@@Z ; Json::Reader::readToken
	test	al, al
	jne	SHORT $LN371@readObject

	movsxd	rdx, ebx
	lea	rcx, QWORD PTR [rdi+40]
	call	?resize@?$deque@VErrorInfo@Reader@Json@@V?$allocator@VErrorInfo@Reader@Json@@@std@@@std@@QEAAX_K@Z ; std::deque<Json::Reader::ErrorInfo,std::allocator<Json::Reader::ErrorInfo> >::resize
$LN371@readObject:

	mov	eax, DWORD PTR skip$276[rbp-89]
	cmp	eax, 2
	je	SHORT $LN1262@readObject
	test	eax, eax
	jne	SHORT $LL369@readObject
$LN1262@readObject:

	movsxd	rdx, ebx
	lea	rcx, QWORD PTR [rdi+40]
	call	?resize@?$deque@VErrorInfo@Reader@Json@@V?$allocator@VErrorInfo@Reader@Json@@@std@@@std@@QEAAX_K@Z ; std::deque<Json::Reader::ErrorInfo,std::allocator<Json::Reader::ErrorInfo> >::resize

	xor	bl, bl
; File c:\program files (x86)\microsoft visual studio 14.0\vc\include\xstring

; 2251 : 		else if (this->_BUF_SIZE <= this->_Myres())

	mov	rax, QWORD PTR $T48[rbp-65]
	cmp	rax, 16
	jb	$LN1014@readObject

; 2252 : 			{	// copy any leftovers to small buffer and deallocate
; 2253 : 			pointer _Ptr = this->_Bx()._Ptr;
; 2254 : 			this->_Getal().destroy(_STD addressof(this->_Bx()._Ptr));
; 2255 : 			if (0 < _Newsize)
; 2256 : 				_Traits::copy(this->_Bx()._Buf,
; 2257 : 					_Unfancy(_Ptr), _Newsize);
; 2258 : 			this->_Getal().deallocate(_Ptr, this->_Myres() + 1);

	inc	rax
; File c:\program files (x86)\microsoft visual studio 14.0\vc\include\xmemory0

; 720  : 		_Deallocate(_Ptr, _Count, sizeof (_Ty));

	mov	rcx, QWORD PTR $T48[rbp-89]

; 96   : 	if (_BIG_ALLOCATION_THRESHOLD <= _User_size)

	cmp	rax, 4096				; 00001000H
	jb	$LN828@readObject

; 97   : 		{	// deallocate large block
; 98   : 		const uintptr_t _Ptr_user = reinterpret_cast<uintptr_t>(_Ptr);
; 99   : 		_SCL_SECURE_ALWAYS_VALIDATE(

	test	cl, 31
	je	SHORT $LN469@readObject
	call	_invalid_parameter_noinfo_noreturn
	int	3
$LN469@readObject:

; 100  : 			(_Ptr_user & (_BIG_ALLOCATION_ALIGNMENT - 1)) == 0);
; 101  : 		const uintptr_t _Ptr_ptr = _Ptr_user - sizeof(void *);
; 102  : 		const uintptr_t _Ptr_container =
; 103  : 			*reinterpret_cast<uintptr_t *>(_Ptr_ptr);

	mov	rax, QWORD PTR [rcx-8]

; 104  : 
; 105  :  #ifdef _DEBUG
; 106  : 		// If the following asserts, it likely means that we are performing
; 107  : 		// an aligned delete on memory coming from an unaligned allocation.
; 108  : 		_SCL_SECURE_ALWAYS_VALIDATE(
; 109  : 			reinterpret_cast<uintptr_t *>(_Ptr_ptr)[-1] ==
; 110  : 				_BIG_ALLOCATION_SENTINEL);
; 111  :  #endif /* _DEBUG */
; 112  : 
; 113  : 		// Extra paranoia on aligned allocation/deallocation
; 114  : 		_SCL_SECURE_ALWAYS_VALIDATE(_Ptr_container < _Ptr_user);

	cmp	rax, rcx
	jb	SHORT $LN470@readObject
	call	_invalid_parameter_noinfo_noreturn
	int	3
$LN470@readObject:

; 115  : 
; 116  :  #ifdef _DEBUG
; 117  : 		_SCL_SECURE_ALWAYS_VALIDATE(2 * sizeof(void *)
; 118  : 			<= _Ptr_user - _Ptr_container);
; 119  : 
; 120  :  #else /* _DEBUG */
; 121  : 		_SCL_SECURE_ALWAYS_VALIDATE(sizeof(void *)

	sub	rcx, rax
	cmp	rcx, 8
	jae	SHORT $LN471@readObject
	call	_invalid_parameter_noinfo_noreturn
	int	3
$LN471@readObject:

; 122  : 			<= _Ptr_user - _Ptr_container);
; 123  :  #endif /* _DEBUG */
; 124  : 
; 125  : 		_SCL_SECURE_ALWAYS_VALIDATE(_Ptr_user - _Ptr_container

	cmp	rcx, 39					; 00000027H
	jbe	$LN832@readObject
	call	_invalid_parameter_noinfo_noreturn
	int	3
$LN1279@readObject:
	cmp	QWORD PTR name$[rbp-73], 0
; File c:\users\admin\desktop\jsoncpp-src-0.5.0\src\lib_json\json_reader.cpp

	jne	SHORT $LN3@readObject
	mov	bl, 1
	jmp	$LN1014@readObject
$LN3@readObject:
; File c:\program files (x86)\microsoft visual studio 14.0\vc\include\xstring

; 2260 : 		this->_Myres() = this->_BUF_SIZE - 1;

	mov	QWORD PTR $T191[rbp-65], 15

; 2219 : 		_Traits::assign(_Dx._Myptr()[_Dx._Mysize = _Newsize], _Elem());

	mov	QWORD PTR $T191[rbp-73], rsi
; File c:\program files (x86)\microsoft visual studio 14.0\vc\include\iosfwd

; 565  : 		_Left = _Right;

	mov	BYTE PTR $T191[rbp-89], 0
; File c:\program files (x86)\microsoft visual studio 14.0\vc\include\xstring

; 1182 : 		return (assign(_Ptr, _Traits::length(_Ptr)));

	mov	r8d, 33					; 00000021H
	lea	rdx, OFFSET FLAT:??_C@_0CC@JNCGHFHN@Missing?5?8?$HN?8?5or?5object?5member?5nam@
	lea	rcx, QWORD PTR $T191[rbp-89]
	call	?assign@?$basic_string@DU?$char_traits@D@std@@V?$allocator@D@2@@std@@QEAAAEAV12@PEBD_K@Z ; std::basic_string<char,std::char_traits<char>,std::allocator<char> >::assign
	npad	1
; File c:\users\admin\desktop\jsoncpp-src-0.5.0\src\lib_json\json_reader.cpp

	xor	r9d, r9d
	lea	r8, QWORD PTR tokenName$[rbp-89]
	lea	rdx, QWORD PTR $T191[rbp-89]
	mov	rcx, rdi
	call	?addError@Reader@Json@@AEAA_NAEBV?$basic_string@DU?$char_traits@D@std@@V?$allocator@D@2@@std@@AEAVToken@12@PEBD@Z ; Json::Reader::addError
; File c:\program files (x86)\microsoft visual studio 14.0\vc\include\deque

; 1383 : 		return (this->_Mysize());

	mov	rbx, QWORD PTR [rdi+72]
	npad	4
$LL995@readObject:
; File c:\users\admin\desktop\jsoncpp-src-0.5.0\src\lib_json\json_reader.cpp

	lea	rdx, QWORD PTR skip$274[rbp-89]
	mov	rcx, rdi
	call	?readToken@Reader@Json@@AEAA_NAEAVToken@12@@Z ; Json::Reader::readToken
	test	al, al
	jne	SHORT $LN997@readObject

	movsxd	rdx, ebx
	lea	rcx, QWORD PTR [rdi+40]
	call	?resize@?$deque@VErrorInfo@Reader@Json@@V?$allocator@VErrorInfo@Reader@Json@@@std@@@std@@QEAAX_K@Z ; std::deque<Json::Reader::ErrorInfo,std::allocator<Json::Reader::ErrorInfo> >::resize
$LN997@readObject:

	mov	eax, DWORD PTR skip$274[rbp-89]
	cmp	eax, 2
	je	SHORT $LN1263@readObject
	test	eax, eax
	jne	SHORT $LL995@readObject
$LN1263@readObject:

	movsxd	rdx, ebx
	lea	rcx, QWORD PTR [rdi+40]
	call	?resize@?$deque@VErrorInfo@Reader@Json@@V?$allocator@VErrorInfo@Reader@Json@@@std@@@std@@QEAAX_K@Z ; std::deque<Json::Reader::ErrorInfo,std::allocator<Json::Reader::ErrorInfo> >::resize

	xor	bl, bl
; File c:\program files (x86)\microsoft visual studio 14.0\vc\include\xstring

; 2251 : 		else if (this->_BUF_SIZE <= this->_Myres())

	mov	rax, QWORD PTR $T191[rbp-65]
	cmp	rax, 16
	jb	SHORT $LN1099@readObject

; 2252 : 			{	// copy any leftovers to small buffer and deallocate
; 2253 : 			pointer _Ptr = this->_Bx()._Ptr;
; 2254 : 			this->_Getal().destroy(_STD addressof(this->_Bx()._Ptr));
; 2255 : 			if (0 < _Newsize)
; 2256 : 				_Traits::copy(this->_Bx()._Buf,
; 2257 : 					_Unfancy(_Ptr), _Newsize);
; 2258 : 			this->_Getal().deallocate(_Ptr, this->_Myres() + 1);

	inc	rax
; File c:\program files (x86)\microsoft visual studio 14.0\vc\include\xmemory0

; 720  : 		_Deallocate(_Ptr, _Count, sizeof (_Ty));

	mov	rcx, QWORD PTR $T191[rbp-89]

; 96   : 	if (_BIG_ALLOCATION_THRESHOLD <= _User_size)

	cmp	rax, 4096				; 00001000H
	jb	SHORT $LN1094@readObject

; 97   : 		{	// deallocate large block
; 98   : 		const uintptr_t _Ptr_user = reinterpret_cast<uintptr_t>(_Ptr);
; 99   : 		_SCL_SECURE_ALWAYS_VALIDATE(

	test	cl, 31
	je	SHORT $LN1095@readObject
	call	_invalid_parameter_noinfo_noreturn
	int	3
$LN1095@readObject:

; 100  : 			(_Ptr_user & (_BIG_ALLOCATION_ALIGNMENT - 1)) == 0);
; 101  : 		const uintptr_t _Ptr_ptr = _Ptr_user - sizeof(void *);
; 102  : 		const uintptr_t _Ptr_container =
; 103  : 			*reinterpret_cast<uintptr_t *>(_Ptr_ptr);

	mov	rax, QWORD PTR [rcx-8]

; 104  : 
; 105  :  #ifdef _DEBUG
; 106  : 		// If the following asserts, it likely means that we are performing
; 107  : 		// an aligned delete on memory coming from an unaligned allocation.
; 108  : 		_SCL_SECURE_ALWAYS_VALIDATE(
; 109  : 			reinterpret_cast<uintptr_t *>(_Ptr_ptr)[-1] ==
; 110  : 				_BIG_ALLOCATION_SENTINEL);
; 111  :  #endif /* _DEBUG */
; 112  : 
; 113  : 		// Extra paranoia on aligned allocation/deallocation
; 114  : 		_SCL_SECURE_ALWAYS_VALIDATE(_Ptr_container < _Ptr_user);

	cmp	rax, rcx
	jb	SHORT $LN1096@readObject
	call	_invalid_parameter_noinfo_noreturn
	int	3
$LN1096@readObject:

; 115  : 
; 116  :  #ifdef _DEBUG
; 117  : 		_SCL_SECURE_ALWAYS_VALIDATE(2 * sizeof(void *)
; 118  : 			<= _Ptr_user - _Ptr_container);
; 119  : 
; 120  :  #else /* _DEBUG */
; 121  : 		_SCL_SECURE_ALWAYS_VALIDATE(sizeof(void *)

	sub	rcx, rax
	cmp	rcx, 8
	jae	SHORT $LN1097@readObject
	call	_invalid_parameter_noinfo_noreturn
	int	3
$LN1097@readObject:

; 122  : 			<= _Ptr_user - _Ptr_container);
; 123  :  #endif /* _DEBUG */
; 124  : 
; 125  : 		_SCL_SECURE_ALWAYS_VALIDATE(_Ptr_user - _Ptr_container

	cmp	rcx, 39					; 00000027H
	jbe	SHORT $LN1098@readObject
	call	_invalid_parameter_noinfo_noreturn
	int	3
$LN1098@readObject:

; 126  : 			<= _NON_USER_SIZE);
; 127  : 
; 128  : 		_Ptr = reinterpret_cast<void *>(_Ptr_container);

	mov	rcx, rax
$LN1094@readObject:

; 129  : 		}
; 130  :  #endif /* defined(_M_IX86) || defined(_M_X64) */
; 131  : 
; 132  : 	::operator delete(_Ptr);

	call	??3@YAXPEAX@Z				; operator delete
$LN1099@readObject:
; File c:\program files (x86)\microsoft visual studio 14.0\vc\include\xstring

; 2260 : 		this->_Myres() = this->_BUF_SIZE - 1;

	mov	QWORD PTR $T191[rbp-65], 15

; 2219 : 		_Traits::assign(_Dx._Myptr()[_Dx._Mysize = _Newsize], _Elem());

	mov	QWORD PTR $T191[rbp-73], rsi
; File c:\program files (x86)\microsoft visual studio 14.0\vc\include\iosfwd

; 565  : 		_Left = _Right;

	mov	BYTE PTR $T191[rbp-89], 0
$LN1014@readObject:
; File c:\program files (x86)\microsoft visual studio 14.0\vc\include\xstring

; 2251 : 		else if (this->_BUF_SIZE <= this->_Myres())

	mov	rax, QWORD PTR name$[rbp-65]
	cmp	rax, 16
	jb	SHORT $LN1216@readObject

; 2252 : 			{	// copy any leftovers to small buffer and deallocate
; 2253 : 			pointer _Ptr = this->_Bx()._Ptr;
; 2254 : 			this->_Getal().destroy(_STD addressof(this->_Bx()._Ptr));
; 2255 : 			if (0 < _Newsize)
; 2256 : 				_Traits::copy(this->_Bx()._Buf,
; 2257 : 					_Unfancy(_Ptr), _Newsize);
; 2258 : 			this->_Getal().deallocate(_Ptr, this->_Myres() + 1);

	inc	rax
; File c:\program files (x86)\microsoft visual studio 14.0\vc\include\xmemory0

; 720  : 		_Deallocate(_Ptr, _Count, sizeof (_Ty));

	mov	rcx, QWORD PTR name$[rbp-89]

; 96   : 	if (_BIG_ALLOCATION_THRESHOLD <= _User_size)

	cmp	rax, 4096				; 00001000H
	jb	SHORT $LN1211@readObject

; 97   : 		{	// deallocate large block
; 98   : 		const uintptr_t _Ptr_user = reinterpret_cast<uintptr_t>(_Ptr);
; 99   : 		_SCL_SECURE_ALWAYS_VALIDATE(

	test	cl, 31
	je	SHORT $LN1212@readObject
	call	_invalid_parameter_noinfo_noreturn
	int	3
$LN1212@readObject:

; 100  : 			(_Ptr_user & (_BIG_ALLOCATION_ALIGNMENT - 1)) == 0);
; 101  : 		const uintptr_t _Ptr_ptr = _Ptr_user - sizeof(void *);
; 102  : 		const uintptr_t _Ptr_container =
; 103  : 			*reinterpret_cast<uintptr_t *>(_Ptr_ptr);

	mov	rax, QWORD PTR [rcx-8]

; 104  : 
; 105  :  #ifdef _DEBUG
; 106  : 		// If the following asserts, it likely means that we are performing
; 107  : 		// an aligned delete on memory coming from an unaligned allocation.
; 108  : 		_SCL_SECURE_ALWAYS_VALIDATE(
; 109  : 			reinterpret_cast<uintptr_t *>(_Ptr_ptr)[-1] ==
; 110  : 				_BIG_ALLOCATION_SENTINEL);
; 111  :  #endif /* _DEBUG */
; 112  : 
; 113  : 		// Extra paranoia on aligned allocation/deallocation
; 114  : 		_SCL_SECURE_ALWAYS_VALIDATE(_Ptr_container < _Ptr_user);

	cmp	rax, rcx
	jb	SHORT $LN1213@readObject
	call	_invalid_parameter_noinfo_noreturn
	int	3
$LN1213@readObject:

; 115  : 
; 116  :  #ifdef _DEBUG
; 117  : 		_SCL_SECURE_ALWAYS_VALIDATE(2 * sizeof(void *)
; 118  : 			<= _Ptr_user - _Ptr_container);
; 119  : 
; 120  :  #else /* _DEBUG */
; 121  : 		_SCL_SECURE_ALWAYS_VALIDATE(sizeof(void *)

	sub	rcx, rax
	cmp	rcx, 8
	jae	SHORT $LN1214@readObject
	call	_invalid_parameter_noinfo_noreturn
	int	3
$LN1214@readObject:

; 122  : 			<= _Ptr_user - _Ptr_container);
; 123  :  #endif /* _DEBUG */
; 124  : 
; 125  : 		_SCL_SECURE_ALWAYS_VALIDATE(_Ptr_user - _Ptr_container

	cmp	rcx, 39					; 00000027H
	jbe	SHORT $LN1215@readObject
	call	_invalid_parameter_noinfo_noreturn
	int	3
$LN1215@readObject:

; 126  : 			<= _NON_USER_SIZE);
; 127  : 
; 128  : 		_Ptr = reinterpret_cast<void *>(_Ptr_container);

	mov	rcx, rax
$LN1211@readObject:

; 129  : 		}
; 130  :  #endif /* defined(_M_IX86) || defined(_M_X64) */
; 131  : 
; 132  : 	::operator delete(_Ptr);

	call	??3@YAXPEAX@Z				; operator delete
$LN1216@readObject:
; File c:\users\admin\desktop\jsoncpp-src-0.5.0\src\lib_json\json_reader.cpp

	movzx	eax, bl

	mov	rcx, QWORD PTR __$ArrayPad$[rbp-89]
	xor	rcx, rsp
	call	__security_check_cookie
	lea	r11, QWORD PTR [rsp+176]
	mov	rbx, QWORD PTR [r11+24]
	mov	rsi, QWORD PTR [r11+32]
	mov	rdi, QWORD PTR [r11+40]
	mov	rsp, r11
	pop	rbp
	ret	0
$LN1283@readObject:
?readObject@Reader@Json@@AEAA_NAEAVToken@12@@Z ENDP	; Json::Reader::readObject
_TEXT	ENDS
;	COMDAT text$x
text$x	SEGMENT
skip$274 = 32
skip$275 = 32
skip$276 = 32
$T38 = 32
colon$277 = 32
$T29 = 56
$T110 = 56
$T278 = 64
$T37 = 72
$T191 = 72
comma$279 = 72
$T48 = 72
$T132 = 104
tokenName$ = 104
$T28 = 104
name$ = 136
__$ArrayPad$ = 168
this$ = 192
tokenStart$dead$ = 200
?dtor$0@?0??readObject@Reader@Json@@AEAA_NAEAVToken@12@@Z@4HA PROC ; `Json::Reader::readObject'::`1'::dtor$0
	lea	rcx, QWORD PTR name$[rdx]
	jmp	??1?$basic_string@DU?$char_traits@D@std@@V?$allocator@D@2@@std@@QEAA@XZ ; std::basic_string<char,std::char_traits<char>,std::allocator<char> >::~basic_string<char,std::char_traits<char>,std::allocator<char> >
?dtor$0@?0??readObject@Reader@Json@@AEAA_NAEAVToken@12@@Z@4HA ENDP ; `Json::Reader::readObject'::`1'::dtor$0
skip$274 = 32
skip$275 = 32
skip$276 = 32
$T38 = 32
colon$277 = 32
$T29 = 56
$T110 = 56
$T278 = 64
$T37 = 72
$T191 = 72
comma$279 = 72
$T48 = 72
$T132 = 104
tokenName$ = 104
$T28 = 104
name$ = 136
__$ArrayPad$ = 168
this$ = 192
tokenStart$dead$ = 200
?dtor$32@?0??readObject@Reader@Json@@AEAA_NAEAVToken@12@@Z@4HA PROC ; `Json::Reader::readObject'::`1'::dtor$32
	push	rbp
	sub	rsp, 32					; 00000020H
	mov	rbp, rdx
	mov	edx, 16
	mov	rcx, QWORD PTR $T29[rbp]
	call	??3@YAXPEAX_K@Z				; operator delete
	add	rsp, 32					; 00000020H
	pop	rbp
	ret	0
?dtor$32@?0??readObject@Reader@Json@@AEAA_NAEAVToken@12@@Z@4HA ENDP ; `Json::Reader::readObject'::`1'::dtor$32
skip$274 = 32
skip$275 = 32
skip$276 = 32
$T38 = 32
colon$277 = 32
$T29 = 56
$T110 = 56
$T278 = 64
$T37 = 72
$T191 = 72
comma$279 = 72
$T48 = 72
$T132 = 104
tokenName$ = 104
$T28 = 104
name$ = 136
__$ArrayPad$ = 168
this$ = 192
tokenStart$dead$ = 200
?dtor$1@?0??readObject@Reader@Json@@AEAA_NAEAVToken@12@@Z@4HA PROC ; `Json::Reader::readObject'::`1'::dtor$1
	lea	rcx, QWORD PTR $T28[rdx]
	jmp	??1Value@Json@@QEAA@XZ			; Json::Value::~Value
?dtor$1@?0??readObject@Reader@Json@@AEAA_NAEAVToken@12@@Z@4HA ENDP ; `Json::Reader::readObject'::`1'::dtor$1
skip$274 = 32
skip$275 = 32
skip$276 = 32
$T38 = 32
colon$277 = 32
$T29 = 56
$T110 = 56
$T278 = 64
$T37 = 72
$T191 = 72
comma$279 = 72
$T48 = 72
$T132 = 104
tokenName$ = 104
$T28 = 104
name$ = 136
__$ArrayPad$ = 168
this$ = 192
tokenStart$dead$ = 200
?dtor$2@?0??readObject@Reader@Json@@AEAA_NAEAVToken@12@@Z@4HA PROC ; `Json::Reader::readObject'::`1'::dtor$2
	lea	rcx, QWORD PTR $T48[rdx]
	jmp	??1?$basic_string@DU?$char_traits@D@std@@V?$allocator@D@2@@std@@QEAA@XZ ; std::basic_string<char,std::char_traits<char>,std::allocator<char> >::~basic_string<char,std::char_traits<char>,std::allocator<char> >
?dtor$2@?0??readObject@Reader@Json@@AEAA_NAEAVToken@12@@Z@4HA ENDP ; `Json::Reader::readObject'::`1'::dtor$2
skip$274 = 32
skip$275 = 32
skip$276 = 32
$T38 = 32
colon$277 = 32
$T29 = 56
$T110 = 56
$T278 = 64
$T37 = 72
$T191 = 72
comma$279 = 72
$T48 = 72
$T132 = 104
tokenName$ = 104
$T28 = 104
name$ = 136
__$ArrayPad$ = 168
this$ = 192
tokenStart$dead$ = 200
?dtor$3@?0??readObject@Reader@Json@@AEAA_NAEAVToken@12@@Z@4HA PROC ; `Json::Reader::readObject'::`1'::dtor$3
	lea	rcx, QWORD PTR $T132[rdx]
	jmp	??1?$basic_string@DU?$char_traits@D@std@@V?$allocator@D@2@@std@@QEAA@XZ ; std::basic_string<char,std::char_traits<char>,std::allocator<char> >::~basic_string<char,std::char_traits<char>,std::allocator<char> >
?dtor$3@?0??readObject@Reader@Json@@AEAA_NAEAVToken@12@@Z@4HA ENDP ; `Json::Reader::readObject'::`1'::dtor$3
skip$274 = 32
skip$275 = 32
skip$276 = 32
$T38 = 32
colon$277 = 32
$T29 = 56
$T110 = 56
$T278 = 64
$T37 = 72
$T191 = 72
comma$279 = 72
$T48 = 72
$T132 = 104
tokenName$ = 104
$T28 = 104
name$ = 136
__$ArrayPad$ = 168
this$ = 192
tokenStart$dead$ = 200
?dtor$4@?0??readObject@Reader@Json@@AEAA_NAEAVToken@12@@Z@4HA PROC ; `Json::Reader::readObject'::`1'::dtor$4
	lea	rcx, QWORD PTR $T191[rdx]
	jmp	??1?$basic_string@DU?$char_traits@D@std@@V?$allocator@D@2@@std@@QEAA@XZ ; std::basic_string<char,std::char_traits<char>,std::allocator<char> >::~basic_string<char,std::char_traits<char>,std::allocator<char> >
?dtor$4@?0??readObject@Reader@Json@@AEAA_NAEAVToken@12@@Z@4HA ENDP ; `Json::Reader::readObject'::`1'::dtor$4
text$x	ENDS
; Function compile flags: /Ogtpy
;	COMDAT text$x
text$x	SEGMENT
skip$274 = 32
skip$275 = 32
skip$276 = 32
$T38 = 32
colon$277 = 32
$T29 = 56
$T110 = 56
$T278 = 64
$T37 = 72
$T191 = 72
comma$279 = 72
$T48 = 72
$T132 = 104
tokenName$ = 104
$T28 = 104
name$ = 136
__$ArrayPad$ = 168
this$ = 192
tokenStart$dead$ = 200
?dtor$0@?0??readObject@Reader@Json@@AEAA_NAEAVToken@12@@Z@4HA PROC ; `Json::Reader::readObject'::`1'::dtor$0
	lea	rcx, QWORD PTR name$[rdx]
	jmp	??1?$basic_string@DU?$char_traits@D@std@@V?$allocator@D@2@@std@@QEAA@XZ ; std::basic_string<char,std::char_traits<char>,std::allocator<char> >::~basic_string<char,std::char_traits<char>,std::allocator<char> >
?dtor$0@?0??readObject@Reader@Json@@AEAA_NAEAVToken@12@@Z@4HA ENDP ; `Json::Reader::readObject'::`1'::dtor$0
text$x	ENDS
; Function compile flags: /Ogtpy
;	COMDAT text$x
text$x	SEGMENT
skip$274 = 32
skip$275 = 32
skip$276 = 32
$T38 = 32
colon$277 = 32
$T29 = 56
$T110 = 56
$T278 = 64
$T37 = 72
$T191 = 72
comma$279 = 72
$T48 = 72
$T132 = 104
tokenName$ = 104
$T28 = 104
name$ = 136
__$ArrayPad$ = 168
this$ = 192
tokenStart$dead$ = 200
?dtor$32@?0??readObject@Reader@Json@@AEAA_NAEAVToken@12@@Z@4HA PROC ; `Json::Reader::readObject'::`1'::dtor$32
	push	rbp
	sub	rsp, 32					; 00000020H
	mov	rbp, rdx
	mov	edx, 16
	mov	rcx, QWORD PTR $T29[rbp]
	call	??3@YAXPEAX_K@Z				; operator delete
	add	rsp, 32					; 00000020H
	pop	rbp
	ret	0
?dtor$32@?0??readObject@Reader@Json@@AEAA_NAEAVToken@12@@Z@4HA ENDP ; `Json::Reader::readObject'::`1'::dtor$32
text$x	ENDS
; Function compile flags: /Ogtpy
;	COMDAT text$x
text$x	SEGMENT
skip$274 = 32
skip$275 = 32
skip$276 = 32
$T38 = 32
colon$277 = 32
$T29 = 56
$T110 = 56
$T278 = 64
$T37 = 72
$T191 = 72
comma$279 = 72
$T48 = 72
$T132 = 104
tokenName$ = 104
$T28 = 104
name$ = 136
__$ArrayPad$ = 168
this$ = 192
tokenStart$dead$ = 200
?dtor$1@?0??readObject@Reader@Json@@AEAA_NAEAVToken@12@@Z@4HA PROC ; `Json::Reader::readObject'::`1'::dtor$1
	lea	rcx, QWORD PTR $T28[rdx]
	jmp	??1Value@Json@@QEAA@XZ			; Json::Value::~Value
?dtor$1@?0??readObject@Reader@Json@@AEAA_NAEAVToken@12@@Z@4HA ENDP ; `Json::Reader::readObject'::`1'::dtor$1
text$x	ENDS
; Function compile flags: /Ogtpy
;	COMDAT text$x
text$x	SEGMENT
skip$274 = 32
skip$275 = 32
skip$276 = 32
$T38 = 32
colon$277 = 32
$T29 = 56
$T110 = 56
$T278 = 64
$T37 = 72
$T191 = 72
comma$279 = 72
$T48 = 72
$T132 = 104
tokenName$ = 104
$T28 = 104
name$ = 136
__$ArrayPad$ = 168
this$ = 192
tokenStart$dead$ = 200
?dtor$2@?0??readObject@Reader@Json@@AEAA_NAEAVToken@12@@Z@4HA PROC ; `Json::Reader::readObject'::`1'::dtor$2
	lea	rcx, QWORD PTR $T48[rdx]
	jmp	??1?$basic_string@DU?$char_traits@D@std@@V?$allocator@D@2@@std@@QEAA@XZ ; std::basic_string<char,std::char_traits<char>,std::allocator<char> >::~basic_string<char,std::char_traits<char>,std::allocator<char> >
?dtor$2@?0??readObject@Reader@Json@@AEAA_NAEAVToken@12@@Z@4HA ENDP ; `Json::Reader::readObject'::`1'::dtor$2
text$x	ENDS
; Function compile flags: /Ogtpy
;	COMDAT text$x
text$x	SEGMENT
skip$274 = 32
skip$275 = 32
skip$276 = 32
$T38 = 32
colon$277 = 32
$T29 = 56
$T110 = 56
$T278 = 64
$T37 = 72
$T191 = 72
comma$279 = 72
$T48 = 72
$T132 = 104
tokenName$ = 104
$T28 = 104
name$ = 136
__$ArrayPad$ = 168
this$ = 192
tokenStart$dead$ = 200
?dtor$3@?0??readObject@Reader@Json@@AEAA_NAEAVToken@12@@Z@4HA PROC ; `Json::Reader::readObject'::`1'::dtor$3
	lea	rcx, QWORD PTR $T132[rdx]
	jmp	??1?$basic_string@DU?$char_traits@D@std@@V?$allocator@D@2@@std@@QEAA@XZ ; std::basic_string<char,std::char_traits<char>,std::allocator<char> >::~basic_string<char,std::char_traits<char>,std::allocator<char> >
?dtor$3@?0??readObject@Reader@Json@@AEAA_NAEAVToken@12@@Z@4HA ENDP ; `Json::Reader::readObject'::`1'::dtor$3
text$x	ENDS
; Function compile flags: /Ogtpy
;	COMDAT text$x
text$x	SEGMENT
skip$274 = 32
skip$275 = 32
skip$276 = 32
$T38 = 32
colon$277 = 32
$T29 = 56
$T110 = 56
$T278 = 64
$T37 = 72
$T191 = 72
comma$279 = 72
$T48 = 72
$T132 = 104
tokenName$ = 104
$T28 = 104
name$ = 136
__$ArrayPad$ = 168
this$ = 192
tokenStart$dead$ = 200
?dtor$4@?0??readObject@Reader@Json@@AEAA_NAEAVToken@12@@Z@4HA PROC ; `Json::Reader::readObject'::`1'::dtor$4
	lea	rcx, QWORD PTR $T191[rdx]
	jmp	??1?$basic_string@DU?$char_traits@D@std@@V?$allocator@D@2@@std@@QEAA@XZ ; std::basic_string<char,std::char_traits<char>,std::allocator<char> >::~basic_string<char,std::char_traits<char>,std::allocator<char> >
?dtor$4@?0??readObject@Reader@Json@@AEAA_NAEAVToken@12@@Z@4HA ENDP ; `Json::Reader::readObject'::`1'::dtor$4
text$x	ENDS
; Function compile flags: /Ogtpy
; File c:\users\admin\desktop\jsoncpp-src-0.5.0\src\lib_json\json_reader.cpp
; File c:\users\admin\desktop\jsoncpp-src-0.5.0\src\lib_json\json_value.cpp
; File c:\program files (x86)\microsoft visual studio 14.0\vc\include\xtree
; File c:\users\admin\desktop\jsoncpp-src-0.5.0\src\lib_json\json_value.cpp
; File c:\program files (x86)\microsoft visual studio 14.0\vc\include\deque
; File c:\program files (x86)\microsoft visual studio 14.0\vc\include\xutility
; File c:\program files (x86)\microsoft visual studio 14.0\vc\include\deque
; File c:\users\admin\desktop\jsoncpp-src-0.5.0\src\lib_json\json_reader.cpp
; File c:\program files (x86)\microsoft visual studio 14.0\vc\include\stack
; File c:\users\admin\desktop\jsoncpp-src-0.5.0\src\lib_json\json_reader.cpp
; File c:\program files (x86)\microsoft visual studio 14.0\vc\include\deque
; File c:\users\admin\desktop\jsoncpp-src-0.5.0\src\lib_json\json_reader.cpp
; File c:\program files (x86)\microsoft visual studio 14.0\vc\include\xstring
; File c:\program files (x86)\microsoft visual studio 14.0\vc\include\iosfwd
; File c:\program files (x86)\microsoft visual studio 14.0\vc\include\xstring
; File c:\users\admin\desktop\jsoncpp-src-0.5.0\src\lib_json\json_reader.cpp
; File c:\program files (x86)\microsoft visual studio 14.0\vc\include\deque
; File c:\users\admin\desktop\jsoncpp-src-0.5.0\src\lib_json\json_reader.cpp
; File c:\program files (x86)\microsoft visual studio 14.0\vc\include\xstring
; File c:\program files (x86)\microsoft visual studio 14.0\vc\include\xmemory0
; File c:\users\admin\desktop\jsoncpp-src-0.5.0\src\lib_json\json_reader.cpp
;	COMDAT ?readArray@Reader@Json@@AEAA_NAEAVToken@12@@Z
_TEXT	SEGMENT
skip$93 = 32
token$94 = 32
$T1 = 32
$T2 = 56
$T14 = 56
$T95 = 64
$T11 = 72
$T10 = 96
$T35 = 96
endArray$96 = 96
__$ArrayPad$ = 128
this$ = 160
tokenStart$dead$ = 168
?readArray@Reader@Json@@AEAA_NAEAVToken@12@@Z PROC	; Json::Reader::readArray, COMDAT

$LN448:
	mov	rax, rsp
	push	rbp
	lea	rbp, QWORD PTR [rax-95]
	sub	rsp, 144				; 00000090H
	mov	QWORD PTR $T95[rbp-57], -2
	mov	QWORD PTR [rax+16], rbx
	mov	QWORD PTR [rax+24], rsi
	mov	QWORD PTR [rax+32], rdi
	mov	rax, QWORD PTR __security_cookie
	xor	rax, rsp
	mov	QWORD PTR __$ArrayPad$[rbp-57], rax
	mov	rdi, rcx
	mov	eax, DWORD PTR $T1[rbp-49]
	and	eax, -506				; fffffffffffffe06H
; File c:\users\admin\desktop\jsoncpp-src-0.5.0\src\lib_json\json_value.cpp

	or	eax, 6
	mov	DWORD PTR $T1[rbp-49], eax

	xor	esi, esi
	mov	QWORD PTR $T1[rbp-41], rsi

	lea	ecx, QWORD PTR [rsi+16]
	call	??2@YAPEAX_K@Z				; operator new
	mov	rbx, rax
	mov	QWORD PTR $T2[rbp-57], rax
; File c:\program files (x86)\microsoft visual studio 14.0\vc\include\xtree

; 567  : 		: _Myhead(),

	mov	QWORD PTR [rax], rsi

; 568  : 		_Mysize(0)

	mov	QWORD PTR [rax+8], rsi

; 721  : 		_Myhead() = _Buyheadnode();

	call	?_Buyheadnode@?$_Tree_comp_alloc@V?$_Tmap_traits@VCZString@Value@Json@@V23@U?$less@VCZString@Value@Json@@@std@@V?$allocator@U?$pair@$$CBVCZString@Value@Json@@V23@@std@@@5@$0A@@std@@@std@@QEAAPEAU?$_Tree_node@U?$pair@$$CBVCZString@Value@Json@@V23@@std@@PEAX@2@XZ ; std::_Tree_comp_alloc<std::_Tmap_traits<Json::Value::CZString,Json::Value,std::less<Json::Value::CZString>,std::allocator<std::pair<Json::Value::CZString const ,Json::Value> >,0> >::_Buyheadnode
	mov	QWORD PTR [rbx], rax
; File c:\users\admin\desktop\jsoncpp-src-0.5.0\src\lib_json\json_value.cpp

	mov	QWORD PTR $T1[rbp-57], rbx
; File c:\program files (x86)\microsoft visual studio 14.0\vc\include\deque

; 1448 : 		return (*(end() - 1));

	lea	rdx, QWORD PTR $T11[rbp-57]
	mov	rcx, rdi
	call	?end@?$deque@PEAVValue@Json@@V?$allocator@PEAVValue@Json@@@std@@@std@@QEAA?AV?$_Deque_iterator@V?$_Deque_val@U?$_Deque_simple_types@PEAVValue@Json@@@std@@@std@@@2@XZ ; std::deque<Json::Value * __ptr64,std::allocator<Json::Value * __ptr64> >::end
	mov	rcx, rax
	lea	rdx, QWORD PTR $T10[rbp-57]
	call	??G?$_Deque_iterator@V?$_Deque_val@U?$_Deque_simple_types@PEAVValue@Json@@@std@@@std@@@std@@QEBA?AV01@_J@Z ; std::_Deque_iterator<std::_Deque_val<std::_Deque_simple_types<Json::Value * __ptr64> > >::operator-
; File c:\program files (x86)\microsoft visual studio 14.0\vc\include\xutility

; 184  : 		return (_Myproxy == 0 ? 0 : _Myproxy->_Mycont);

	mov	rdx, QWORD PTR [rax]
	test	rdx, rdx
	jne	SHORT $LN76@readArray
	mov	edx, esi
	jmp	SHORT $LN77@readArray
$LN76@readArray:
	mov	rdx, QWORD PTR [rdx]
$LN77@readArray:
; File c:\program files (x86)\microsoft visual studio 14.0\vc\include\deque

; 769  : 		return ((_Off / _DEQUESIZ) & (_Mapsize - 1));

	mov	r8, QWORD PTR [rax+16]
	mov	rcx, QWORD PTR [rdx+16]
	dec	rcx
	mov	rax, r8
	shr	rax, 1
	and	rcx, rax

; 342  : 		size_type _Off = _Myoff % _DEQUESIZ;

	and	r8d, 1

; 343  : 		return (_Mycont->_Map[_Block][_Off]);

	mov	rax, QWORD PTR [rdx+8]
	mov	rcx, QWORD PTR [rax+rcx*8]
; File c:\users\admin\desktop\jsoncpp-src-0.5.0\src\lib_json\json_reader.cpp

	lea	rdx, QWORD PTR $T1[rbp-57]
	mov	rcx, QWORD PTR [rcx+r8*8]
	call	??4Value@Json@@QEAAAEAV01@AEBV01@@Z	; Json::Value::operator=
	npad	1
	lea	rcx, QWORD PTR $T1[rbp-57]
	call	??1Value@Json@@QEAA@XZ			; Json::Value::~Value

	mov	rdx, QWORD PTR [rdi+120]
	cmp	QWORD PTR [rdi+128], rdx
	je	SHORT $LN83@readArray
	mov	r8, 4294977024				; 0000000100002600H
	npad	1
$LL81@readArray:

	mov	rcx, QWORD PTR [rdi+128]
	movzx	eax, BYTE PTR [rcx]
	cmp	al, 32					; 00000020H
	ja	SHORT $LN83@readArray
	bt	r8, rax
	jae	SHORT $LN83@readArray

	lea	rax, QWORD PTR [rcx+1]
	mov	QWORD PTR [rdi+128], rax

	cmp	rax, rdx
	jne	SHORT $LL81@readArray
$LN83@readArray:

	mov	rax, QWORD PTR [rdi+128]
	cmp	BYTE PTR [rax], 93			; 0000005dH
	jne	SHORT $LN6@readArray

	lea	rdx, QWORD PTR endArray$96[rbp-57]
	mov	rcx, rdi
	call	?readToken@Reader@Json@@AEAA_NAEAVToken@12@@Z ; Json::Reader::readToken

	mov	al, 1
	jmp	$LN1@readArray
$LN6@readArray:

	mov	ebx, esi
$LL2@readArray:

	mov	rcx, rdi
	call	?currentValue@Reader@Json@@AEAAAEAVValue@2@XZ ; Json::Reader::currentValue
	mov	rcx, rax
	mov	edx, ebx
	call	??AValue@Json@@QEAAAEAV01@I@Z		; Json::Value::operator[]
	inc	ebx

	mov	QWORD PTR $T14[rbp-57], rax
; File c:\program files (x86)\microsoft visual studio 14.0\vc\include\stack

; 108  : 		c.push_back(_STD move(_Val));

	lea	rdx, QWORD PTR $T14[rbp-57]
	mov	rcx, rdi
	call	?push_back@?$deque@PEAVValue@Json@@V?$allocator@PEAVValue@Json@@@std@@@std@@QEAAX$$QEAPEAVValue@Json@@@Z ; std::deque<Json::Value * __ptr64,std::allocator<Json::Value * __ptr64> >::push_back
; File c:\users\admin\desktop\jsoncpp-src-0.5.0\src\lib_json\json_reader.cpp

	mov	rcx, rdi
	call	?readValue@Reader@Json@@AEAA_NXZ	; Json::Reader::readValue
; File c:\program files (x86)\microsoft visual studio 14.0\vc\include\deque

; 1523 : 		if (--this->_Mysize() == 0)

	sub	QWORD PTR [rdi+32], 1
	jne	SHORT $LN95@readArray

; 1524 : 			this->_Myoff() = 0;

	mov	QWORD PTR [rdi+24], rsi
$LN95@readArray:
; File c:\users\admin\desktop\jsoncpp-src-0.5.0\src\lib_json\json_reader.cpp

	mov	rcx, rdi

	test	al, al
	je	$LN431@readArray

	lea	rdx, QWORD PTR token$94[rbp-57]
	call	?readToken@Reader@Json@@AEAA_NAEAVToken@12@@Z ; Json::Reader::readToken

	mov	ecx, DWORD PTR token$94[rbp-57]
	cmp	ecx, 12
	jne	SHORT $LN5@readArray
$LL4@readArray:
	test	al, al
	je	SHORT $LN9@readArray

	lea	rdx, QWORD PTR token$94[rbp-57]
	mov	rcx, rdi
	call	?readToken@Reader@Json@@AEAA_NAEAVToken@12@@Z ; Json::Reader::readToken

	mov	ecx, DWORD PTR token$94[rbp-57]
	cmp	ecx, 12
	je	SHORT $LL4@readArray
$LN5@readArray:

	test	al, al
	je	SHORT $LN9@readArray

	cmp	ecx, 4
	jne	SHORT $LL2@readArray

	mov	al, 1
	jmp	$LN1@readArray
$LN9@readArray:
; File c:\program files (x86)\microsoft visual studio 14.0\vc\include\xstring

; 2260 : 		this->_Myres() = this->_BUF_SIZE - 1;

	mov	QWORD PTR $T35[rbp-33], 15

; 2219 : 		_Traits::assign(_Dx._Myptr()[_Dx._Mysize = _Newsize], _Elem());

	mov	QWORD PTR $T35[rbp-41], rsi
; File c:\program files (x86)\microsoft visual studio 14.0\vc\include\iosfwd

; 565  : 		_Left = _Right;

	mov	BYTE PTR $T35[rbp-57], 0
; File c:\program files (x86)\microsoft visual studio 14.0\vc\include\xstring

; 1182 : 		return (assign(_Ptr, _Traits::length(_Ptr)));

	mov	r8d, 39					; 00000027H
	lea	rdx, OFFSET FLAT:??_C@_0CI@DPCANLPO@Missing?5?8?0?8?5or?5?8?$FN?8?5in?5array?5decl@
	lea	rcx, QWORD PTR $T35[rbp-57]
	call	?assign@?$basic_string@DU?$char_traits@D@std@@V?$allocator@D@2@@std@@QEAAAEAV12@PEBD_K@Z ; std::basic_string<char,std::char_traits<char>,std::allocator<char> >::assign
	npad	1
; File c:\users\admin\desktop\jsoncpp-src-0.5.0\src\lib_json\json_reader.cpp

	xor	r9d, r9d
	lea	r8, QWORD PTR token$94[rbp-57]
	lea	rdx, QWORD PTR $T35[rbp-57]
	mov	rcx, rdi
	call	?addError@Reader@Json@@AEAA_NAEBV?$basic_string@DU?$char_traits@D@std@@V?$allocator@D@2@@std@@AEAVToken@12@PEBD@Z ; Json::Reader::addError
; File c:\program files (x86)\microsoft visual studio 14.0\vc\include\deque

; 1383 : 		return (this->_Mysize());

	mov	rbx, QWORD PTR [rdi+72]
	npad	2
$LL292@readArray:
; File c:\users\admin\desktop\jsoncpp-src-0.5.0\src\lib_json\json_reader.cpp

	lea	rdx, QWORD PTR skip$93[rbp-57]
	mov	rcx, rdi
	call	?readToken@Reader@Json@@AEAA_NAEAVToken@12@@Z ; Json::Reader::readToken
	test	al, al
	jne	SHORT $LN294@readArray

	movsxd	rdx, ebx
	lea	rcx, QWORD PTR [rdi+40]
	call	?resize@?$deque@VErrorInfo@Reader@Json@@V?$allocator@VErrorInfo@Reader@Json@@@std@@@std@@QEAAX_K@Z ; std::deque<Json::Reader::ErrorInfo,std::allocator<Json::Reader::ErrorInfo> >::resize
$LN294@readArray:

	mov	eax, DWORD PTR skip$93[rbp-57]
	cmp	eax, 4
	je	SHORT $LN434@readArray
	test	eax, eax
	jne	SHORT $LL292@readArray
$LN434@readArray:

	movsxd	rdx, ebx
	lea	rcx, QWORD PTR [rdi+40]
	call	?resize@?$deque@VErrorInfo@Reader@Json@@V?$allocator@VErrorInfo@Reader@Json@@@std@@@std@@QEAAX_K@Z ; std::deque<Json::Reader::ErrorInfo,std::allocator<Json::Reader::ErrorInfo> >::resize
	npad	1
; File c:\program files (x86)\microsoft visual studio 14.0\vc\include\xstring

; 2251 : 		else if (this->_BUF_SIZE <= this->_Myres())

	mov	rax, QWORD PTR $T35[rbp-33]
	cmp	rax, 16
	jb	SHORT $LN396@readArray

; 2252 : 			{	// copy any leftovers to small buffer and deallocate
; 2253 : 			pointer _Ptr = this->_Bx()._Ptr;
; 2254 : 			this->_Getal().destroy(_STD addressof(this->_Bx()._Ptr));
; 2255 : 			if (0 < _Newsize)
; 2256 : 				_Traits::copy(this->_Bx()._Buf,
; 2257 : 					_Unfancy(_Ptr), _Newsize);
; 2258 : 			this->_Getal().deallocate(_Ptr, this->_Myres() + 1);

	inc	rax
; File c:\program files (x86)\microsoft visual studio 14.0\vc\include\xmemory0

; 720  : 		_Deallocate(_Ptr, _Count, sizeof (_Ty));

	mov	rcx, QWORD PTR $T35[rbp-57]

; 96   : 	if (_BIG_ALLOCATION_THRESHOLD <= _User_size)

	cmp	rax, 4096				; 00001000H
	jb	SHORT $LN391@readArray

; 97   : 		{	// deallocate large block
; 98   : 		const uintptr_t _Ptr_user = reinterpret_cast<uintptr_t>(_Ptr);
; 99   : 		_SCL_SECURE_ALWAYS_VALIDATE(

	test	cl, 31
	je	SHORT $LN392@readArray
	call	_invalid_parameter_noinfo_noreturn
	int	3
$LN392@readArray:

; 100  : 			(_Ptr_user & (_BIG_ALLOCATION_ALIGNMENT - 1)) == 0);
; 101  : 		const uintptr_t _Ptr_ptr = _Ptr_user - sizeof(void *);
; 102  : 		const uintptr_t _Ptr_container =
; 103  : 			*reinterpret_cast<uintptr_t *>(_Ptr_ptr);

	mov	rax, QWORD PTR [rcx-8]

; 104  : 
; 105  :  #ifdef _DEBUG
; 106  : 		// If the following asserts, it likely means that we are performing
; 107  : 		// an aligned delete on memory coming from an unaligned allocation.
; 108  : 		_SCL_SECURE_ALWAYS_VALIDATE(
; 109  : 			reinterpret_cast<uintptr_t *>(_Ptr_ptr)[-1] ==
; 110  : 				_BIG_ALLOCATION_SENTINEL);
; 111  :  #endif /* _DEBUG */
; 112  : 
; 113  : 		// Extra paranoia on aligned allocation/deallocation
; 114  : 		_SCL_SECURE_ALWAYS_VALIDATE(_Ptr_container < _Ptr_user);

	cmp	rax, rcx
	jb	SHORT $LN393@readArray
	call	_invalid_parameter_noinfo_noreturn
	int	3
$LN393@readArray:

; 115  : 
; 116  :  #ifdef _DEBUG
; 117  : 		_SCL_SECURE_ALWAYS_VALIDATE(2 * sizeof(void *)
; 118  : 			<= _Ptr_user - _Ptr_container);
; 119  : 
; 120  :  #else /* _DEBUG */
; 121  : 		_SCL_SECURE_ALWAYS_VALIDATE(sizeof(void *)

	sub	rcx, rax
	cmp	rcx, 8
	jae	SHORT $LN394@readArray
	call	_invalid_parameter_noinfo_noreturn
	int	3
$LN394@readArray:

; 122  : 			<= _Ptr_user - _Ptr_container);
; 123  :  #endif /* _DEBUG */
; 124  : 
; 125  : 		_SCL_SECURE_ALWAYS_VALIDATE(_Ptr_user - _Ptr_container

	cmp	rcx, 39					; 00000027H
	jbe	SHORT $LN395@readArray
	call	_invalid_parameter_noinfo_noreturn
	int	3
$LN395@readArray:

; 126  : 			<= _NON_USER_SIZE);
; 127  : 
; 128  : 		_Ptr = reinterpret_cast<void *>(_Ptr_container);

	mov	rcx, rax
$LN391@readArray:

; 129  : 		}
; 130  :  #endif /* defined(_M_IX86) || defined(_M_X64) */
; 131  : 
; 132  : 	::operator delete(_Ptr);

	call	??3@YAXPEAX@Z				; operator delete
$LN396@readArray:
; File c:\users\admin\desktop\jsoncpp-src-0.5.0\src\lib_json\json_reader.cpp

	xor	al, al
	jmp	SHORT $LN1@readArray
$LN431@readArray:

	mov	edx, 4
	call	?recoverFromError@Reader@Json@@AEAA_NW4TokenType@12@@Z ; Json::Reader::recoverFromError
$LN1@readArray:

	mov	rcx, QWORD PTR __$ArrayPad$[rbp-57]
	xor	rcx, rsp
	call	__security_check_cookie
	lea	r11, QWORD PTR [rsp+144]
	mov	rbx, QWORD PTR [r11+24]
	mov	rsi, QWORD PTR [r11+32]
	mov	rdi, QWORD PTR [r11+40]
	mov	rsp, r11
	pop	rbp
	ret	0
$LN447@readArray:
?readArray@Reader@Json@@AEAA_NAEAVToken@12@@Z ENDP	; Json::Reader::readArray
_TEXT	ENDS
;	COMDAT text$x
text$x	SEGMENT
skip$93 = 32
token$94 = 32
$T1 = 32
$T2 = 56
$T14 = 56
$T95 = 64
$T11 = 72
$T10 = 96
$T35 = 96
endArray$96 = 96
__$ArrayPad$ = 128
this$ = 160
tokenStart$dead$ = 168
?dtor$2@?0??readArray@Reader@Json@@AEAA_NAEAVToken@12@@Z@4HA PROC ; `Json::Reader::readArray'::`1'::dtor$2
	push	rbp
	sub	rsp, 32					; 00000020H
	mov	rbp, rdx
	mov	edx, 16
	mov	rcx, QWORD PTR $T2[rbp]
	call	??3@YAXPEAX_K@Z				; operator delete
	add	rsp, 32					; 00000020H
	pop	rbp
	ret	0
?dtor$2@?0??readArray@Reader@Json@@AEAA_NAEAVToken@12@@Z@4HA ENDP ; `Json::Reader::readArray'::`1'::dtor$2
skip$93 = 32
token$94 = 32
$T1 = 32
$T2 = 56
$T14 = 56
$T95 = 64
$T11 = 72
$T10 = 96
$T35 = 96
endArray$96 = 96
__$ArrayPad$ = 128
this$ = 160
tokenStart$dead$ = 168
?dtor$0@?0??readArray@Reader@Json@@AEAA_NAEAVToken@12@@Z@4HA PROC ; `Json::Reader::readArray'::`1'::dtor$0
	lea	rcx, QWORD PTR $T1[rdx]
	jmp	??1Value@Json@@QEAA@XZ			; Json::Value::~Value
?dtor$0@?0??readArray@Reader@Json@@AEAA_NAEAVToken@12@@Z@4HA ENDP ; `Json::Reader::readArray'::`1'::dtor$0
skip$93 = 32
token$94 = 32
$T1 = 32
$T2 = 56
$T14 = 56
$T95 = 64
$T11 = 72
$T10 = 96
$T35 = 96
endArray$96 = 96
__$ArrayPad$ = 128
this$ = 160
tokenStart$dead$ = 168
?dtor$1@?0??readArray@Reader@Json@@AEAA_NAEAVToken@12@@Z@4HA PROC ; `Json::Reader::readArray'::`1'::dtor$1
	lea	rcx, QWORD PTR $T35[rdx]
	jmp	??1?$basic_string@DU?$char_traits@D@std@@V?$allocator@D@2@@std@@QEAA@XZ ; std::basic_string<char,std::char_traits<char>,std::allocator<char> >::~basic_string<char,std::char_traits<char>,std::allocator<char> >
?dtor$1@?0??readArray@Reader@Json@@AEAA_NAEAVToken@12@@Z@4HA ENDP ; `Json::Reader::readArray'::`1'::dtor$1
text$x	ENDS
; Function compile flags: /Ogtpy
;	COMDAT text$x
text$x	SEGMENT
skip$93 = 32
token$94 = 32
$T1 = 32
$T2 = 56
$T14 = 56
$T95 = 64
$T11 = 72
$T10 = 96
$T35 = 96
endArray$96 = 96
__$ArrayPad$ = 128
this$ = 160
tokenStart$dead$ = 168
?dtor$2@?0??readArray@Reader@Json@@AEAA_NAEAVToken@12@@Z@4HA PROC ; `Json::Reader::readArray'::`1'::dtor$2
	push	rbp
	sub	rsp, 32					; 00000020H
	mov	rbp, rdx
	mov	edx, 16
	mov	rcx, QWORD PTR $T2[rbp]
	call	??3@YAXPEAX_K@Z				; operator delete
	add	rsp, 32					; 00000020H
	pop	rbp
	ret	0
?dtor$2@?0??readArray@Reader@Json@@AEAA_NAEAVToken@12@@Z@4HA ENDP ; `Json::Reader::readArray'::`1'::dtor$2
text$x	ENDS
; Function compile flags: /Ogtpy
;	COMDAT text$x
text$x	SEGMENT
skip$93 = 32
token$94 = 32
$T1 = 32
$T2 = 56
$T14 = 56
$T95 = 64
$T11 = 72
$T10 = 96
$T35 = 96
endArray$96 = 96
__$ArrayPad$ = 128
this$ = 160
tokenStart$dead$ = 168
?dtor$0@?0??readArray@Reader@Json@@AEAA_NAEAVToken@12@@Z@4HA PROC ; `Json::Reader::readArray'::`1'::dtor$0
	lea	rcx, QWORD PTR $T1[rdx]
	jmp	??1Value@Json@@QEAA@XZ			; Json::Value::~Value
?dtor$0@?0??readArray@Reader@Json@@AEAA_NAEAVToken@12@@Z@4HA ENDP ; `Json::Reader::readArray'::`1'::dtor$0
text$x	ENDS
; Function compile flags: /Ogtpy
;	COMDAT text$x
text$x	SEGMENT
skip$93 = 32
token$94 = 32
$T1 = 32
$T2 = 56
$T14 = 56
$T95 = 64
$T11 = 72
$T10 = 96
$T35 = 96
endArray$96 = 96
__$ArrayPad$ = 128
this$ = 160
tokenStart$dead$ = 168
?dtor$1@?0??readArray@Reader@Json@@AEAA_NAEAVToken@12@@Z@4HA PROC ; `Json::Reader::readArray'::`1'::dtor$1
	lea	rcx, QWORD PTR $T35[rdx]
	jmp	??1?$basic_string@DU?$char_traits@D@std@@V?$allocator@D@2@@std@@QEAA@XZ ; std::basic_string<char,std::char_traits<char>,std::allocator<char> >::~basic_string<char,std::char_traits<char>,std::allocator<char> >
?dtor$1@?0??readArray@Reader@Json@@AEAA_NAEAVToken@12@@Z@4HA ENDP ; `Json::Reader::readArray'::`1'::dtor$1
text$x	ENDS
END
